Archive member included to satisfy reference by file (symbol)

C:/ti/simplelink_msp432e4_sdk_4_20_00_12/source\ti/display/lib/display.am4fg(Display.om4fg)
                              ./MLX90614.o (Display_doOpen)
C:/ti/simplelink_msp432e4_sdk_4_20_00_12/source\ti/display/lib/display.am4fg(DisplayUart.om4fg)
                              ./syscfg/ti_drivers_config.o (DisplayUartMin_fxnTable)
C:/ti/simplelink_msp432e4_sdk_4_20_00_12/source\ti/drivers/lib/drivers_msp432e4.am4fg(GPIOMSP432E4.om4fg)
                              ./MLX90614.o (GPIO_setConfig)
C:/ti/simplelink_msp432e4_sdk_4_20_00_12/source\ti/drivers/lib/drivers_msp432e4.am4fg(I2C.om4fg)
                              ./MLX90614.o (I2C_close)
C:/ti/simplelink_msp432e4_sdk_4_20_00_12/source\ti/drivers/lib/drivers_msp432e4.am4fg(I2CMSP432E4.om4fg)
                              ./syscfg/ti_drivers_config.o (I2CMSP432E4_fxnTable)
C:/ti/simplelink_msp432e4_sdk_4_20_00_12/source\ti/drivers/lib/drivers_msp432e4.am4fg(PowerMSP432E4.om4fg)
                              ./syscfg/ti_drivers_config.o (Power_init)
C:/ti/simplelink_msp432e4_sdk_4_20_00_12/source\ti/drivers/lib/drivers_msp432e4.am4fg(UART.om4fg)
                              C:/ti/simplelink_msp432e4_sdk_4_20_00_12/source\ti/display/lib/display.am4fg(DisplayUart.om4fg) (UART_close)
C:/ti/simplelink_msp432e4_sdk_4_20_00_12/source\ti/drivers/lib/drivers_msp432e4.am4fg(UARTMSP432E4.om4fg)
                              ./syscfg/ti_drivers_config.o (UARTMSP432E4_fxnTable)
C:/ti/simplelink_msp432e4_sdk_4_20_00_12/source\ti/drivers/lib/drivers_msp432e4.am4fg(RingBuf.om4fg)
                              C:/ti/simplelink_msp432e4_sdk_4_20_00_12/source\ti/drivers/lib/drivers_msp432e4.am4fg(UARTMSP432E4.om4fg) (RingBuf_construct)
C:/Users/Ravonte/workspace_v10/freertos_builds_MSP_EXP432E401Y_release_gcc/Debug\libfreertos_builds_MSP_EXP432E401Y_release_gcc.a(ClockP_freertos.o)
                              C:/ti/simplelink_msp432e4_sdk_4_20_00_12/source\ti/drivers/lib/drivers_msp432e4.am4fg(UARTMSP432E4.om4fg) (ClockP_create)
C:/Users/Ravonte/workspace_v10/freertos_builds_MSP_EXP432E401Y_release_gcc/Debug\libfreertos_builds_MSP_EXP432E401Y_release_gcc.a(HwiPMSP432E4_freertos.o)
                              C:/ti/simplelink_msp432e4_sdk_4_20_00_12/source\ti/drivers/lib/drivers_msp432e4.am4fg(GPIOMSP432E4.om4fg) (HwiP_disable)
C:/Users/Ravonte/workspace_v10/freertos_builds_MSP_EXP432E401Y_release_gcc/Debug\libfreertos_builds_MSP_EXP432E401Y_release_gcc.a(PowerMSP432E4_freertos.o)
                              ./syscfg/ti_drivers_config.o (PowerMSP432E4_sleepPolicy)
C:/Users/Ravonte/workspace_v10/freertos_builds_MSP_EXP432E401Y_release_gcc/Debug\libfreertos_builds_MSP_EXP432E401Y_release_gcc.a(SemaphoreP_freertos.o)
                              C:/ti/simplelink_msp432e4_sdk_4_20_00_12/source\ti/display/lib/display.am4fg(DisplayUart.om4fg) (SemaphoreP_createBinary)
C:/Users/Ravonte/workspace_v10/freertos_builds_MSP_EXP432E401Y_release_gcc/Debug\libfreertos_builds_MSP_EXP432E401Y_release_gcc.a(SystemP_freertos.o)
                              C:/ti/simplelink_msp432e4_sdk_4_20_00_12/source\ti/display/lib/display.am4fg(DisplayUart.om4fg) (SystemP_snprintf)
C:/Users/Ravonte/workspace_v10/freertos_builds_MSP_EXP432E401Y_release_gcc/Debug\libfreertos_builds_MSP_EXP432E401Y_release_gcc.a(heap_4.o)
                              C:/Users/Ravonte/workspace_v10/freertos_builds_MSP_EXP432E401Y_release_gcc/Debug\libfreertos_builds_MSP_EXP432E401Y_release_gcc.a(ClockP_freertos.o) (pvPortMalloc)
C:/Users/Ravonte/workspace_v10/freertos_builds_MSP_EXP432E401Y_release_gcc/Debug\libfreertos_builds_MSP_EXP432E401Y_release_gcc.a(queue.o)
                              C:/Users/Ravonte/workspace_v10/freertos_builds_MSP_EXP432E401Y_release_gcc/Debug\libfreertos_builds_MSP_EXP432E401Y_release_gcc.a(SemaphoreP_freertos.o) (xQueueGenericCreate)
C:/Users/Ravonte/workspace_v10/freertos_builds_MSP_EXP432E401Y_release_gcc/Debug\libfreertos_builds_MSP_EXP432E401Y_release_gcc.a(tasks.o)
                              C:/Users/Ravonte/workspace_v10/freertos_builds_MSP_EXP432E401Y_release_gcc/Debug\libfreertos_builds_MSP_EXP432E401Y_release_gcc.a(heap_4.o) (vTaskSuspendAll)
C:/Users/Ravonte/workspace_v10/freertos_builds_MSP_EXP432E401Y_release_gcc/Debug\libfreertos_builds_MSP_EXP432E401Y_release_gcc.a(timers.o)
                              C:/Users/Ravonte/workspace_v10/freertos_builds_MSP_EXP432E401Y_release_gcc/Debug\libfreertos_builds_MSP_EXP432E401Y_release_gcc.a(tasks.o) (xTimerCreateTimerTask)
C:/Users/Ravonte/workspace_v10/freertos_builds_MSP_EXP432E401Y_release_gcc/Debug\libfreertos_builds_MSP_EXP432E401Y_release_gcc.a(port.o)
                              C:/Users/Ravonte/workspace_v10/freertos_builds_MSP_EXP432E401Y_release_gcc/Debug\libfreertos_builds_MSP_EXP432E401Y_release_gcc.a(tasks.o) (pxPortInitialiseStack)
C:/Users/Ravonte/workspace_v10/freertos_builds_MSP_EXP432E401Y_release_gcc/Debug\libfreertos_builds_MSP_EXP432E401Y_release_gcc.a(startup_msp432e4_gcc.o)
                              (resetISR)
C:/Users/Ravonte/workspace_v10/freertos_builds_MSP_EXP432E401Y_release_gcc/Debug\libfreertos_builds_MSP_EXP432E401Y_release_gcc.a(pthread.o)
                              ./main_freertos.o (pthread_attr_init)
C:/Users/Ravonte/workspace_v10/freertos_builds_MSP_EXP432E401Y_release_gcc/Debug\libfreertos_builds_MSP_EXP432E401Y_release_gcc.a(sleep.o)
                              ./MLX90614.o (sleep)
C:/Users/Ravonte/workspace_v10/freertos_builds_MSP_EXP432E401Y_release_gcc/Debug\libfreertos_builds_MSP_EXP432E401Y_release_gcc.a(list.o)
                              C:/Users/Ravonte/workspace_v10/freertos_builds_MSP_EXP432E401Y_release_gcc/Debug\libfreertos_builds_MSP_EXP432E401Y_release_gcc.a(queue.o) (vListInitialise)
C:/ti/simplelink_msp432e4_sdk_4_20_00_12/source\ti/devices/msp432e4/driverlib/lib/gcc/m4f/msp432e4_driverlib.a(fpu.o)
                              C:/Users/Ravonte/workspace_v10/freertos_builds_MSP_EXP432E401Y_release_gcc/Debug\libfreertos_builds_MSP_EXP432E401Y_release_gcc.a(startup_msp432e4_gcc.o) (FPUEnable)
C:/ti/simplelink_msp432e4_sdk_4_20_00_12/source\ti/devices/msp432e4/driverlib/lib/gcc/m4f/msp432e4_driverlib.a(gpio.o)
                              C:/ti/simplelink_msp432e4_sdk_4_20_00_12/source\ti/drivers/lib/drivers_msp432e4.am4fg(GPIOMSP432E4.om4fg) (GPIODirModeSet)
C:/ti/simplelink_msp432e4_sdk_4_20_00_12/source\ti/devices/msp432e4/driverlib/lib/gcc/m4f/msp432e4_driverlib.a(i2c.o)
                              C:/ti/simplelink_msp432e4_sdk_4_20_00_12/source\ti/drivers/lib/drivers_msp432e4.am4fg(I2CMSP432E4.om4fg) (I2CMasterInitExpClk)
C:/ti/simplelink_msp432e4_sdk_4_20_00_12/source\ti/devices/msp432e4/driverlib/lib/gcc/m4f/msp432e4_driverlib.a(interrupt.o)
                              C:/Users/Ravonte/workspace_v10/freertos_builds_MSP_EXP432E401Y_release_gcc/Debug\libfreertos_builds_MSP_EXP432E401Y_release_gcc.a(HwiPMSP432E4_freertos.o) (IntRegister)
C:/ti/simplelink_msp432e4_sdk_4_20_00_12/source\ti/devices/msp432e4/driverlib/lib/gcc/m4f/msp432e4_driverlib.a(sysctl.o)
                              C:/ti/simplelink_msp432e4_sdk_4_20_00_12/source\ti/drivers/lib/drivers_msp432e4.am4fg(PowerMSP432E4.om4fg) (SysCtlPeripheralPresent)
C:/ti/simplelink_msp432e4_sdk_4_20_00_12/source\ti/devices/msp432e4/driverlib/lib/gcc/m4f/msp432e4_driverlib.a(uart.o)
                              C:/ti/simplelink_msp432e4_sdk_4_20_00_12/source\ti/drivers/lib/drivers_msp432e4.am4fg(UARTMSP432E4.om4fg) (UARTFIFOLevelSet)
C:/ti/simplelink_msp432e4_sdk_4_20_00_12/source\ti/devices/msp432e4/driverlib/lib/gcc/m4f/msp432e4_driverlib.a(cpu.o)
                              C:/ti/simplelink_msp432e4_sdk_4_20_00_12/source\ti/devices/msp432e4/driverlib/lib/gcc/m4f/msp432e4_driverlib.a(interrupt.o) (CPUcpsid)
c:/ti/ccs1020/ccs/tools/compiler/gcc-arm-none-eabi-9-2019-q4-major/bin/../lib/gcc/arm-none-eabi/9.2.1/thumb/v7e-m+fp/hard\libgcc.a(_arm_muldf3.o)
                              ./MLX90614.o (__aeabi_dmul)
c:/ti/ccs1020/ccs/tools/compiler/gcc-arm-none-eabi-9-2019-q4-major/bin/../lib/gcc/arm-none-eabi/9.2.1/thumb/v7e-m+fp/hard\libgcc.a(_arm_addsubdf3.o)
                              ./MLX90614.o (__aeabi_dsub)
c:/ti/ccs1020/ccs/tools/compiler/gcc-arm-none-eabi-9-2019-q4-major/bin/../lib/gcc/arm-none-eabi/9.2.1/thumb/v7e-m+fp/hard\libgcc.a(_arm_cmpdf2.o)
                              C:/Users/Ravonte/workspace_v10/freertos_builds_MSP_EXP432E401Y_release_gcc/Debug\libfreertos_builds_MSP_EXP432E401Y_release_gcc.a(SystemP_freertos.o) (__aeabi_dcmplt)
c:/ti/ccs1020/ccs/tools/compiler/gcc-arm-none-eabi-9-2019-q4-major/bin/../lib/gcc/arm-none-eabi/9.2.1/thumb/v7e-m+fp/hard\libgcc.a(_arm_fixdfsi.o)
                              ./MLX90614.o (__aeabi_d2iz)
c:/ti/ccs1020/ccs/tools/compiler/gcc-arm-none-eabi-9-2019-q4-major/bin/../lib/gcc/arm-none-eabi/9.2.1/thumb/v7e-m+fp/hard\libgcc.a(_arm_fixunsdfsi.o)
                              C:/Users/Ravonte/workspace_v10/freertos_builds_MSP_EXP432E401Y_release_gcc/Debug\libfreertos_builds_MSP_EXP432E401Y_release_gcc.a(SystemP_freertos.o) (__aeabi_d2uiz)
c:/ti/ccs1020/ccs/tools/compiler/gcc-arm-none-eabi-9-2019-q4-major/bin/../lib/gcc/arm-none-eabi/9.2.1/../../../../arm-none-eabi/lib/thumb/v7e-m+fp/hard\libc_nano.a(lib_a-errno.o)
                              C:/Users/Ravonte/workspace_v10/freertos_builds_MSP_EXP432E401Y_release_gcc/Debug\libfreertos_builds_MSP_EXP432E401Y_release_gcc.a(sleep.o) (__errno)
c:/ti/ccs1020/ccs/tools/compiler/gcc-arm-none-eabi-9-2019-q4-major/bin/../lib/gcc/arm-none-eabi/9.2.1/../../../../arm-none-eabi/lib/thumb/v7e-m+fp/hard\libc_nano.a(lib_a-findfp.o)
                              C:/Users/Ravonte/workspace_v10/freertos_builds_MSP_EXP432E401Y_release_gcc/Debug\libfreertos_builds_MSP_EXP432E401Y_release_gcc.a(tasks.o) (__sf_fake_stderr)
c:/ti/ccs1020/ccs/tools/compiler/gcc-arm-none-eabi-9-2019-q4-major/bin/../lib/gcc/arm-none-eabi/9.2.1/../../../../arm-none-eabi/lib/thumb/v7e-m+fp/hard\libc_nano.a(lib_a-fwalk.o)
                              c:/ti/ccs1020/ccs/tools/compiler/gcc-arm-none-eabi-9-2019-q4-major/bin/../lib/gcc/arm-none-eabi/9.2.1/../../../../arm-none-eabi/lib/thumb/v7e-m+fp/hard\libc_nano.a(lib_a-findfp.o) (_fwalk)
c:/ti/ccs1020/ccs/tools/compiler/gcc-arm-none-eabi-9-2019-q4-major/bin/../lib/gcc/arm-none-eabi/9.2.1/../../../../arm-none-eabi/lib/thumb/v7e-m+fp/hard\libc_nano.a(lib_a-impure.o)
                              c:/ti/ccs1020/ccs/tools/compiler/gcc-arm-none-eabi-9-2019-q4-major/bin/../lib/gcc/arm-none-eabi/9.2.1/../../../../arm-none-eabi/lib/thumb/v7e-m+fp/hard\libc_nano.a(lib_a-findfp.o) (_global_impure_ptr)
c:/ti/ccs1020/ccs/tools/compiler/gcc-arm-none-eabi-9-2019-q4-major/bin/../lib/gcc/arm-none-eabi/9.2.1/../../../../arm-none-eabi/lib/thumb/v7e-m+fp/hard\libc_nano.a(lib_a-lock.o)
                              c:/ti/ccs1020/ccs/tools/compiler/gcc-arm-none-eabi-9-2019-q4-major/bin/../lib/gcc/arm-none-eabi/9.2.1/../../../../arm-none-eabi/lib/thumb/v7e-m+fp/hard\libc_nano.a(lib_a-findfp.o) (__retarget_lock_init_recursive)
c:/ti/ccs1020/ccs/tools/compiler/gcc-arm-none-eabi-9-2019-q4-major/bin/../lib/gcc/arm-none-eabi/9.2.1/../../../../arm-none-eabi/lib/thumb/v7e-m+fp/hard\libc_nano.a(lib_a-memcpy-stub.o)
                              C:/Users/Ravonte/workspace_v10/freertos_builds_MSP_EXP432E401Y_release_gcc/Debug\libfreertos_builds_MSP_EXP432E401Y_release_gcc.a(queue.o) (memcpy)
c:/ti/ccs1020/ccs/tools/compiler/gcc-arm-none-eabi-9-2019-q4-major/bin/../lib/gcc/arm-none-eabi/9.2.1/../../../../arm-none-eabi/lib/thumb/v7e-m+fp/hard\libc_nano.a(lib_a-memset.o)
                              C:/Users/Ravonte/workspace_v10/freertos_builds_MSP_EXP432E401Y_release_gcc/Debug\libfreertos_builds_MSP_EXP432E401Y_release_gcc.a(tasks.o) (memset)
c:/ti/ccs1020/ccs/tools/compiler/gcc-arm-none-eabi-9-2019-q4-major/bin/../lib/gcc/arm-none-eabi/9.2.1/../../../../arm-none-eabi/lib/thumb/v7e-m+fp/hard\libc_nano.a(lib_a-nano-mallocr.o)
                              c:/ti/ccs1020/ccs/tools/compiler/gcc-arm-none-eabi-9-2019-q4-major/bin/../lib/gcc/arm-none-eabi/9.2.1/../../../../arm-none-eabi/lib/thumb/v7e-m+fp/hard\libc_nano.a(lib_a-findfp.o) (_malloc_r)
c:/ti/ccs1020/ccs/tools/compiler/gcc-arm-none-eabi-9-2019-q4-major/bin/../lib/gcc/arm-none-eabi/9.2.1/../../../../arm-none-eabi/lib/thumb/v7e-m+fp/hard\libc_nano.a(lib_a-reent.o)
                              C:/Users/Ravonte/workspace_v10/freertos_builds_MSP_EXP432E401Y_release_gcc/Debug\libfreertos_builds_MSP_EXP432E401Y_release_gcc.a(tasks.o) (_reclaim_reent)
c:/ti/ccs1020/ccs/tools/compiler/gcc-arm-none-eabi-9-2019-q4-major/bin/../lib/gcc/arm-none-eabi/9.2.1/../../../../arm-none-eabi/lib/thumb/v7e-m+fp/hard\libc_nano.a(lib_a-sbrkr.o)
                              c:/ti/ccs1020/ccs/tools/compiler/gcc-arm-none-eabi-9-2019-q4-major/bin/../lib/gcc/arm-none-eabi/9.2.1/../../../../arm-none-eabi/lib/thumb/v7e-m+fp/hard\libc_nano.a(lib_a-nano-mallocr.o) (_sbrk_r)
c:/ti/ccs1020/ccs/tools/compiler/gcc-arm-none-eabi-9-2019-q4-major/bin/../lib/gcc/arm-none-eabi/9.2.1/../../../../arm-none-eabi/lib/thumb/v7e-m+fp/hard\libc_nano.a(lib_a-stdio.o)
                              c:/ti/ccs1020/ccs/tools/compiler/gcc-arm-none-eabi-9-2019-q4-major/bin/../lib/gcc/arm-none-eabi/9.2.1/../../../../arm-none-eabi/lib/thumb/v7e-m+fp/hard\libc_nano.a(lib_a-findfp.o) (__sread)
c:/ti/ccs1020/ccs/tools/compiler/gcc-arm-none-eabi-9-2019-q4-major/bin/../lib/gcc/arm-none-eabi/9.2.1/../../../../arm-none-eabi/lib/thumb/v7e-m+fp/hard\libc_nano.a(lib_a-strlen.o)
                              C:/ti/simplelink_msp432e4_sdk_4_20_00_12/source\ti/display/lib/display.am4fg(DisplayUart.om4fg) (strlen)
c:/ti/ccs1020/ccs/tools/compiler/gcc-arm-none-eabi-9-2019-q4-major/bin/../lib/gcc/arm-none-eabi/9.2.1/../../../../arm-none-eabi/lib/thumb/v7e-m+fp/hard\libc_nano.a(lib_a-writer.o)
                              c:/ti/ccs1020/ccs/tools/compiler/gcc-arm-none-eabi-9-2019-q4-major/bin/../lib/gcc/arm-none-eabi/9.2.1/../../../../arm-none-eabi/lib/thumb/v7e-m+fp/hard\libc_nano.a(lib_a-stdio.o) (_write_r)
c:/ti/ccs1020/ccs/tools/compiler/gcc-arm-none-eabi-9-2019-q4-major/bin/../lib/gcc/arm-none-eabi/9.2.1/../../../../arm-none-eabi/lib/thumb/v7e-m+fp/hard\libc_nano.a(lib_a-closer.o)
                              c:/ti/ccs1020/ccs/tools/compiler/gcc-arm-none-eabi-9-2019-q4-major/bin/../lib/gcc/arm-none-eabi/9.2.1/../../../../arm-none-eabi/lib/thumb/v7e-m+fp/hard\libc_nano.a(lib_a-stdio.o) (_close_r)
c:/ti/ccs1020/ccs/tools/compiler/gcc-arm-none-eabi-9-2019-q4-major/bin/../lib/gcc/arm-none-eabi/9.2.1/../../../../arm-none-eabi/lib/thumb/v7e-m+fp/hard\libc_nano.a(lib_a-fflush.o)
                              c:/ti/ccs1020/ccs/tools/compiler/gcc-arm-none-eabi-9-2019-q4-major/bin/../lib/gcc/arm-none-eabi/9.2.1/../../../../arm-none-eabi/lib/thumb/v7e-m+fp/hard\libc_nano.a(lib_a-findfp.o) (_fflush_r)
c:/ti/ccs1020/ccs/tools/compiler/gcc-arm-none-eabi-9-2019-q4-major/bin/../lib/gcc/arm-none-eabi/9.2.1/../../../../arm-none-eabi/lib/thumb/v7e-m+fp/hard\libc_nano.a(lib_a-lseekr.o)
                              c:/ti/ccs1020/ccs/tools/compiler/gcc-arm-none-eabi-9-2019-q4-major/bin/../lib/gcc/arm-none-eabi/9.2.1/../../../../arm-none-eabi/lib/thumb/v7e-m+fp/hard\libc_nano.a(lib_a-stdio.o) (_lseek_r)
c:/ti/ccs1020/ccs/tools/compiler/gcc-arm-none-eabi-9-2019-q4-major/bin/../lib/gcc/arm-none-eabi/9.2.1/../../../../arm-none-eabi/lib/thumb/v7e-m+fp/hard\libc_nano.a(lib_a-mlock.o)
                              c:/ti/ccs1020/ccs/tools/compiler/gcc-arm-none-eabi-9-2019-q4-major/bin/../lib/gcc/arm-none-eabi/9.2.1/../../../../arm-none-eabi/lib/thumb/v7e-m+fp/hard\libc_nano.a(lib_a-nano-mallocr.o) (__malloc_lock)
c:/ti/ccs1020/ccs/tools/compiler/gcc-arm-none-eabi-9-2019-q4-major/bin/../lib/gcc/arm-none-eabi/9.2.1/../../../../arm-none-eabi/lib/thumb/v7e-m+fp/hard\libc_nano.a(lib_a-nano-freer.o)
                              c:/ti/ccs1020/ccs/tools/compiler/gcc-arm-none-eabi-9-2019-q4-major/bin/../lib/gcc/arm-none-eabi/9.2.1/../../../../arm-none-eabi/lib/thumb/v7e-m+fp/hard\libc_nano.a(lib_a-reent.o) (_free_r)
c:/ti/ccs1020/ccs/tools/compiler/gcc-arm-none-eabi-9-2019-q4-major/bin/../lib/gcc/arm-none-eabi/9.2.1/../../../../arm-none-eabi/lib/thumb/v7e-m+fp/hard\libc_nano.a(lib_a-readr.o)
                              c:/ti/ccs1020/ccs/tools/compiler/gcc-arm-none-eabi-9-2019-q4-major/bin/../lib/gcc/arm-none-eabi/9.2.1/../../../../arm-none-eabi/lib/thumb/v7e-m+fp/hard\libc_nano.a(lib_a-stdio.o) (_read_r)
c:/ti/ccs1020/ccs/tools/compiler/gcc-arm-none-eabi-9-2019-q4-major/bin/../lib/gcc/arm-none-eabi/9.2.1/../../../../arm-none-eabi/lib/thumb/v7e-m+fp/hard\libnosys.a(close.o)
                              c:/ti/ccs1020/ccs/tools/compiler/gcc-arm-none-eabi-9-2019-q4-major/bin/../lib/gcc/arm-none-eabi/9.2.1/../../../../arm-none-eabi/lib/thumb/v7e-m+fp/hard\libc_nano.a(lib_a-closer.o) (_close)
c:/ti/ccs1020/ccs/tools/compiler/gcc-arm-none-eabi-9-2019-q4-major/bin/../lib/gcc/arm-none-eabi/9.2.1/../../../../arm-none-eabi/lib/thumb/v7e-m+fp/hard\libnosys.a(lseek.o)
                              c:/ti/ccs1020/ccs/tools/compiler/gcc-arm-none-eabi-9-2019-q4-major/bin/../lib/gcc/arm-none-eabi/9.2.1/../../../../arm-none-eabi/lib/thumb/v7e-m+fp/hard\libc_nano.a(lib_a-lseekr.o) (_lseek)
c:/ti/ccs1020/ccs/tools/compiler/gcc-arm-none-eabi-9-2019-q4-major/bin/../lib/gcc/arm-none-eabi/9.2.1/../../../../arm-none-eabi/lib/thumb/v7e-m+fp/hard\libnosys.a(read.o)
                              c:/ti/ccs1020/ccs/tools/compiler/gcc-arm-none-eabi-9-2019-q4-major/bin/../lib/gcc/arm-none-eabi/9.2.1/../../../../arm-none-eabi/lib/thumb/v7e-m+fp/hard\libc_nano.a(lib_a-readr.o) (_read)
c:/ti/ccs1020/ccs/tools/compiler/gcc-arm-none-eabi-9-2019-q4-major/bin/../lib/gcc/arm-none-eabi/9.2.1/../../../../arm-none-eabi/lib/thumb/v7e-m+fp/hard\libnosys.a(sbrk.o)
                              c:/ti/ccs1020/ccs/tools/compiler/gcc-arm-none-eabi-9-2019-q4-major/bin/../lib/gcc/arm-none-eabi/9.2.1/../../../../arm-none-eabi/lib/thumb/v7e-m+fp/hard\libc_nano.a(lib_a-sbrkr.o) (_sbrk)
c:/ti/ccs1020/ccs/tools/compiler/gcc-arm-none-eabi-9-2019-q4-major/bin/../lib/gcc/arm-none-eabi/9.2.1/../../../../arm-none-eabi/lib/thumb/v7e-m+fp/hard\libnosys.a(write.o)
                              c:/ti/ccs1020/ccs/tools/compiler/gcc-arm-none-eabi-9-2019-q4-major/bin/../lib/gcc/arm-none-eabi/9.2.1/../../../../arm-none-eabi/lib/thumb/v7e-m+fp/hard\libc_nano.a(lib_a-writer.o) (_write)

Allocating common symbols
Common symbol       size              file

__lock___atexit_recursive_mutex
                    0x1               c:/ti/ccs1020/ccs/tools/compiler/gcc-arm-none-eabi-9-2019-q4-major/bin/../lib/gcc/arm-none-eabi/9.2.1/../../../../arm-none-eabi/lib/thumb/v7e-m+fp/hard\libc_nano.a(lib_a-lock.o)
__lock___arc4random_mutex
                    0x1               c:/ti/ccs1020/ccs/tools/compiler/gcc-arm-none-eabi-9-2019-q4-major/bin/../lib/gcc/arm-none-eabi/9.2.1/../../../../arm-none-eabi/lib/thumb/v7e-m+fp/hard\libc_nano.a(lib_a-lock.o)
errno               0x4               c:/ti/ccs1020/ccs/tools/compiler/gcc-arm-none-eabi-9-2019-q4-major/bin/../lib/gcc/arm-none-eabi/9.2.1/../../../../arm-none-eabi/lib/thumb/v7e-m+fp/hard\libc_nano.a(lib_a-reent.o)
i2cMSP432E4Objects  0x3c              ./syscfg/ti_drivers_config.o
__lock___env_recursive_mutex
                    0x1               c:/ti/ccs1020/ccs/tools/compiler/gcc-arm-none-eabi-9-2019-q4-major/bin/../lib/gcc/arm-none-eabi/9.2.1/../../../../arm-none-eabi/lib/thumb/v7e-m+fp/hard\libc_nano.a(lib_a-lock.o)
__lock___sinit_recursive_mutex
                    0x1               c:/ti/ccs1020/ccs/tools/compiler/gcc-arm-none-eabi-9-2019-q4-major/bin/../lib/gcc/arm-none-eabi/9.2.1/../../../../arm-none-eabi/lib/thumb/v7e-m+fp/hard\libc_nano.a(lib_a-lock.o)
__lock___malloc_recursive_mutex
                    0x1               c:/ti/ccs1020/ccs/tools/compiler/gcc-arm-none-eabi-9-2019-q4-major/bin/../lib/gcc/arm-none-eabi/9.2.1/../../../../arm-none-eabi/lib/thumb/v7e-m+fp/hard\libc_nano.a(lib_a-lock.o)
displayUartObject   0xc               ./syscfg/ti_drivers_config.o
uartMSP432E4Objects
                    0x64              ./syscfg/ti_drivers_config.o
__lock___at_quick_exit_mutex
                    0x1               c:/ti/ccs1020/ccs/tools/compiler/gcc-arm-none-eabi-9-2019-q4-major/bin/../lib/gcc/arm-none-eabi/9.2.1/../../../../arm-none-eabi/lib/thumb/v7e-m+fp/hard\libc_nano.a(lib_a-lock.o)
__lock___dd_hash_mutex
                    0x1               c:/ti/ccs1020/ccs/tools/compiler/gcc-arm-none-eabi-9-2019-q4-major/bin/../lib/gcc/arm-none-eabi/9.2.1/../../../../arm-none-eabi/lib/thumb/v7e-m+fp/hard\libc_nano.a(lib_a-lock.o)
__lock___tz_mutex   0x1               c:/ti/ccs1020/ccs/tools/compiler/gcc-arm-none-eabi-9-2019-q4-major/bin/../lib/gcc/arm-none-eabi/9.2.1/../../../../arm-none-eabi/lib/thumb/v7e-m+fp/hard\libc_nano.a(lib_a-lock.o)
__lock___sfp_recursive_mutex
                    0x1               c:/ti/ccs1020/ccs/tools/compiler/gcc-arm-none-eabi-9-2019-q4-major/bin/../lib/gcc/arm-none-eabi/9.2.1/../../../../arm-none-eabi/lib/thumb/v7e-m+fp/hard\libc_nano.a(lib_a-lock.o)

Discarded input sections

 .text          0x00000000        0x0 ./MLX90614.o
 .data          0x00000000        0x0 ./MLX90614.o
 .bss           0x00000000        0x0 ./MLX90614.o
 .text          0x00000000        0x0 ./i2ctmp.o
 .data          0x00000000        0x0 ./i2ctmp.o
 .bss           0x00000000        0x0 ./i2ctmp.o
 .rodata        0x00000000      0x24a ./i2ctmp.o
 .rodata.sensors
                0x00000000       0x18 ./i2ctmp.o
 .bss.slaveAddress
                0x00000000        0x1 ./i2ctmp.o
 .bss.display   0x00000000        0x4 ./i2ctmp.o
 .text.mainThread2
                0x00000000      0x280 ./i2ctmp.o
 .text.i2cErrorHandler
                0x00000000      0x11c ./i2ctmp.o
 .debug_info    0x00000000      0x8c5 ./i2ctmp.o
 .debug_abbrev  0x00000000      0x1dc ./i2ctmp.o
 .debug_aranges
                0x00000000       0x28 ./i2ctmp.o
 .debug_ranges  0x00000000       0x18 ./i2ctmp.o
 .debug_line    0x00000000      0x402 ./i2ctmp.o
 .debug_str     0x00000000      0x6e5 ./i2ctmp.o
 .comment       0x00000000       0x7a ./i2ctmp.o
 .debug_frame   0x00000000       0x60 ./i2ctmp.o
 .ARM.attributes
                0x00000000       0x34 ./i2ctmp.o
 .text          0x00000000        0x0 ./syscfg/ti_drivers_config.o
 .data          0x00000000        0x0 ./syscfg/ti_drivers_config.o
 .bss           0x00000000        0x0 ./syscfg/ti_drivers_config.o
 .rodata.CONFIG_GPIO_LED_0_CONST
                0x00000000        0x1 ./syscfg/ti_drivers_config.o
 .rodata.CONFIG_GPIO_TMP_EN_CONST
                0x00000000        0x1 ./syscfg/ti_drivers_config.o
 .rodata.CONFIG_I2C_TMP_CONST
                0x00000000        0x1 ./syscfg/ti_drivers_config.o
 .rodata.CONFIG_UART_0_CONST
                0x00000000        0x1 ./syscfg/ti_drivers_config.o
 .text          0x00000000        0x0 ./main_freertos.o
 .data          0x00000000        0x0 ./main_freertos.o
 .bss           0x00000000        0x0 ./main_freertos.o
 .text          0x00000000        0x0 C:/ti/simplelink_msp432e4_sdk_4_20_00_12/source\ti/display/lib/display.am4fg(Display.om4fg)
 .data          0x00000000        0x0 C:/ti/simplelink_msp432e4_sdk_4_20_00_12/source\ti/display/lib/display.am4fg(Display.om4fg)
 .bss           0x00000000        0x0 C:/ti/simplelink_msp432e4_sdk_4_20_00_12/source\ti/display/lib/display.am4fg(Display.om4fg)
 .text.Display_doParamsInit
                0x00000000        0x8 C:/ti/simplelink_msp432e4_sdk_4_20_00_12/source\ti/display/lib/display.am4fg(Display.om4fg)
 .text.Display_doClear
                0x00000000        0xc C:/ti/simplelink_msp432e4_sdk_4_20_00_12/source\ti/display/lib/display.am4fg(Display.om4fg)
 .text.Display_doClearLines
                0x00000000        0xc C:/ti/simplelink_msp432e4_sdk_4_20_00_12/source\ti/display/lib/display.am4fg(Display.om4fg)
 .text.Display_doControl
                0x00000000        0xc C:/ti/simplelink_msp432e4_sdk_4_20_00_12/source\ti/display/lib/display.am4fg(Display.om4fg)
 .text.Display_doClose
                0x00000000        0xc C:/ti/simplelink_msp432e4_sdk_4_20_00_12/source\ti/display/lib/display.am4fg(Display.om4fg)
 .text.Display_doGetType
                0x00000000        0xc C:/ti/simplelink_msp432e4_sdk_4_20_00_12/source\ti/display/lib/display.am4fg(Display.om4fg)
 .text          0x00000000        0x0 C:/ti/simplelink_msp432e4_sdk_4_20_00_12/source\ti/display/lib/display.am4fg(DisplayUart.om4fg)
 .data          0x00000000        0x0 C:/ti/simplelink_msp432e4_sdk_4_20_00_12/source\ti/display/lib/display.am4fg(DisplayUart.om4fg)
 .bss           0x00000000        0x0 C:/ti/simplelink_msp432e4_sdk_4_20_00_12/source\ti/display/lib/display.am4fg(DisplayUart.om4fg)
 .text.DisplayUartAnsi_getType
                0x00000000        0x8 C:/ti/simplelink_msp432e4_sdk_4_20_00_12/source\ti/display/lib/display.am4fg(DisplayUart.om4fg)
 .rodata.DisplayUartAnsi_open.str1.4
                0x00000000       0x2b C:/ti/simplelink_msp432e4_sdk_4_20_00_12/source\ti/display/lib/display.am4fg(DisplayUart.om4fg)
 .text.DisplayUartAnsi_open
                0x00000000       0x90 C:/ti/simplelink_msp432e4_sdk_4_20_00_12/source\ti/display/lib/display.am4fg(DisplayUart.om4fg)
 .rodata.DisplayUartAnsi_clear.str1.4
                0x00000000        0x5 C:/ti/simplelink_msp432e4_sdk_4_20_00_12/source\ti/display/lib/display.am4fg(DisplayUart.om4fg)
 .text.DisplayUartAnsi_clear
                0x00000000       0x2c C:/ti/simplelink_msp432e4_sdk_4_20_00_12/source\ti/display/lib/display.am4fg(DisplayUart.om4fg)
 .rodata.DisplayUartAnsi_clearLines.str1.4
                0x00000000       0x1b C:/ti/simplelink_msp432e4_sdk_4_20_00_12/source\ti/display/lib/display.am4fg(DisplayUart.om4fg)
 .text.DisplayUartAnsi_clearLines
                0x00000000       0xac C:/ti/simplelink_msp432e4_sdk_4_20_00_12/source\ti/display/lib/display.am4fg(DisplayUart.om4fg)
 .text.DisplayUartAnsi_vprintf
                0x00000000       0xa0 C:/ti/simplelink_msp432e4_sdk_4_20_00_12/source\ti/display/lib/display.am4fg(DisplayUart.om4fg)
 .text.DisplayUartAnsi_close
                0x00000000        0x4 C:/ti/simplelink_msp432e4_sdk_4_20_00_12/source\ti/display/lib/display.am4fg(DisplayUart.om4fg)
 .text.DisplayUartAnsi_control
                0x00000000        0x8 C:/ti/simplelink_msp432e4_sdk_4_20_00_12/source\ti/display/lib/display.am4fg(DisplayUart.om4fg)
 .text.DisplayUartAnsi_init
                0x00000000        0x4 C:/ti/simplelink_msp432e4_sdk_4_20_00_12/source\ti/display/lib/display.am4fg(DisplayUart.om4fg)
 .rodata.DisplayUartAnsi_fxnTable
                0x00000000       0x20 C:/ti/simplelink_msp432e4_sdk_4_20_00_12/source\ti/display/lib/display.am4fg(DisplayUart.om4fg)
 .text          0x00000000        0x0 C:/ti/simplelink_msp432e4_sdk_4_20_00_12/source\ti/drivers/lib/drivers_msp432e4.am4fg(GPIOMSP432E4.om4fg)
 .data          0x00000000        0x0 C:/ti/simplelink_msp432e4_sdk_4_20_00_12/source\ti/drivers/lib/drivers_msp432e4.am4fg(GPIOMSP432E4.om4fg)
 .bss           0x00000000        0x0 C:/ti/simplelink_msp432e4_sdk_4_20_00_12/source\ti/drivers/lib/drivers_msp432e4.am4fg(GPIOMSP432E4.om4fg)
 .text.GPIO_clearInt
                0x00000000       0x28 C:/ti/simplelink_msp432e4_sdk_4_20_00_12/source\ti/drivers/lib/drivers_msp432e4.am4fg(GPIOMSP432E4.om4fg)
 .text.GPIO_disableInt
                0x00000000       0x38 C:/ti/simplelink_msp432e4_sdk_4_20_00_12/source\ti/drivers/lib/drivers_msp432e4.am4fg(GPIOMSP432E4.om4fg)
 .text.GPIO_enableInt
                0x00000000       0x38 C:/ti/simplelink_msp432e4_sdk_4_20_00_12/source\ti/drivers/lib/drivers_msp432e4.am4fg(GPIOMSP432E4.om4fg)
 .text.GPIO_getConfig
                0x00000000       0x10 C:/ti/simplelink_msp432e4_sdk_4_20_00_12/source\ti/drivers/lib/drivers_msp432e4.am4fg(GPIOMSP432E4.om4fg)
 .text.GPIO_read
                0x00000000       0x34 C:/ti/simplelink_msp432e4_sdk_4_20_00_12/source\ti/drivers/lib/drivers_msp432e4.am4fg(GPIOMSP432E4.om4fg)
 .text.GPIO_toggle
                0x00000000       0x5c C:/ti/simplelink_msp432e4_sdk_4_20_00_12/source\ti/drivers/lib/drivers_msp432e4.am4fg(GPIOMSP432E4.om4fg)
 .text          0x00000000        0x0 C:/ti/simplelink_msp432e4_sdk_4_20_00_12/source\ti/drivers/lib/drivers_msp432e4.am4fg(I2C.om4fg)
 .data          0x00000000        0x0 C:/ti/simplelink_msp432e4_sdk_4_20_00_12/source\ti/drivers/lib/drivers_msp432e4.am4fg(I2C.om4fg)
 .bss           0x00000000        0x0 C:/ti/simplelink_msp432e4_sdk_4_20_00_12/source\ti/drivers/lib/drivers_msp432e4.am4fg(I2C.om4fg)
 .text.I2C_cancel
                0x00000000        0x8 C:/ti/simplelink_msp432e4_sdk_4_20_00_12/source\ti/drivers/lib/drivers_msp432e4.am4fg(I2C.om4fg)
 .text.I2C_control
                0x00000000        0x8 C:/ti/simplelink_msp432e4_sdk_4_20_00_12/source\ti/drivers/lib/drivers_msp432e4.am4fg(I2C.om4fg)
 .text.I2C_transferTimeout
                0x00000000        0x8 C:/ti/simplelink_msp432e4_sdk_4_20_00_12/source\ti/drivers/lib/drivers_msp432e4.am4fg(I2C.om4fg)
 .text          0x00000000        0x0 C:/ti/simplelink_msp432e4_sdk_4_20_00_12/source\ti/drivers/lib/drivers_msp432e4.am4fg(I2CMSP432E4.om4fg)
 .data          0x00000000        0x0 C:/ti/simplelink_msp432e4_sdk_4_20_00_12/source\ti/drivers/lib/drivers_msp432e4.am4fg(I2CMSP432E4.om4fg)
 .bss           0x00000000        0x0 C:/ti/simplelink_msp432e4_sdk_4_20_00_12/source\ti/drivers/lib/drivers_msp432e4.am4fg(I2CMSP432E4.om4fg)
 .text          0x00000000        0x0 C:/ti/simplelink_msp432e4_sdk_4_20_00_12/source\ti/drivers/lib/drivers_msp432e4.am4fg(PowerMSP432E4.om4fg)
 .data          0x00000000        0x0 C:/ti/simplelink_msp432e4_sdk_4_20_00_12/source\ti/drivers/lib/drivers_msp432e4.am4fg(PowerMSP432E4.om4fg)
 .bss           0x00000000        0x0 C:/ti/simplelink_msp432e4_sdk_4_20_00_12/source\ti/drivers/lib/drivers_msp432e4.am4fg(PowerMSP432E4.om4fg)
 .text.Power_disablePolicy
                0x00000000       0x14 C:/ti/simplelink_msp432e4_sdk_4_20_00_12/source\ti/drivers/lib/drivers_msp432e4.am4fg(PowerMSP432E4.om4fg)
 .text.Power_enablePolicy
                0x00000000       0x10 C:/ti/simplelink_msp432e4_sdk_4_20_00_12/source\ti/drivers/lib/drivers_msp432e4.am4fg(PowerMSP432E4.om4fg)
 .text.Power_getDependencyCount
                0x00000000       0x18 C:/ti/simplelink_msp432e4_sdk_4_20_00_12/source\ti/drivers/lib/drivers_msp432e4.am4fg(PowerMSP432E4.om4fg)
 .text.Power_setPolicy
                0x00000000        0xc C:/ti/simplelink_msp432e4_sdk_4_20_00_12/source\ti/drivers/lib/drivers_msp432e4.am4fg(PowerMSP432E4.om4fg)
 .text          0x00000000        0x0 C:/ti/simplelink_msp432e4_sdk_4_20_00_12/source\ti/drivers/lib/drivers_msp432e4.am4fg(UART.om4fg)
 .data          0x00000000        0x0 C:/ti/simplelink_msp432e4_sdk_4_20_00_12/source\ti/drivers/lib/drivers_msp432e4.am4fg(UART.om4fg)
 .bss           0x00000000        0x0 C:/ti/simplelink_msp432e4_sdk_4_20_00_12/source\ti/drivers/lib/drivers_msp432e4.am4fg(UART.om4fg)
 .text.UART_read
                0x00000000        0x8 C:/ti/simplelink_msp432e4_sdk_4_20_00_12/source\ti/drivers/lib/drivers_msp432e4.am4fg(UART.om4fg)
 .text.UART_readPolling
                0x00000000        0x8 C:/ti/simplelink_msp432e4_sdk_4_20_00_12/source\ti/drivers/lib/drivers_msp432e4.am4fg(UART.om4fg)
 .text.UART_readCancel
                0x00000000        0x8 C:/ti/simplelink_msp432e4_sdk_4_20_00_12/source\ti/drivers/lib/drivers_msp432e4.am4fg(UART.om4fg)
 .text.UART_writePolling
                0x00000000        0x8 C:/ti/simplelink_msp432e4_sdk_4_20_00_12/source\ti/drivers/lib/drivers_msp432e4.am4fg(UART.om4fg)
 .text.UART_writeCancel
                0x00000000        0x8 C:/ti/simplelink_msp432e4_sdk_4_20_00_12/source\ti/drivers/lib/drivers_msp432e4.am4fg(UART.om4fg)
 .text          0x00000000        0x0 C:/ti/simplelink_msp432e4_sdk_4_20_00_12/source\ti/drivers/lib/drivers_msp432e4.am4fg(UARTMSP432E4.om4fg)
 .data          0x00000000        0x0 C:/ti/simplelink_msp432e4_sdk_4_20_00_12/source\ti/drivers/lib/drivers_msp432e4.am4fg(UARTMSP432E4.om4fg)
 .bss           0x00000000        0x0 C:/ti/simplelink_msp432e4_sdk_4_20_00_12/source\ti/drivers/lib/drivers_msp432e4.am4fg(UARTMSP432E4.om4fg)
 .text          0x00000000        0x0 C:/ti/simplelink_msp432e4_sdk_4_20_00_12/source\ti/drivers/lib/drivers_msp432e4.am4fg(RingBuf.om4fg)
 .data          0x00000000        0x0 C:/ti/simplelink_msp432e4_sdk_4_20_00_12/source\ti/drivers/lib/drivers_msp432e4.am4fg(RingBuf.om4fg)
 .bss           0x00000000        0x0 C:/ti/simplelink_msp432e4_sdk_4_20_00_12/source\ti/drivers/lib/drivers_msp432e4.am4fg(RingBuf.om4fg)
 .text.RingBuf_getCount
                0x00000000        0x4 C:/ti/simplelink_msp432e4_sdk_4_20_00_12/source\ti/drivers/lib/drivers_msp432e4.am4fg(RingBuf.om4fg)
 .text.RingBuf_getMaxCount
                0x00000000        0x4 C:/ti/simplelink_msp432e4_sdk_4_20_00_12/source\ti/drivers/lib/drivers_msp432e4.am4fg(RingBuf.om4fg)
 .text          0x00000000        0x0 C:/Users/Ravonte/workspace_v10/freertos_builds_MSP_EXP432E401Y_release_gcc/Debug\libfreertos_builds_MSP_EXP432E401Y_release_gcc.a(ClockP_freertos.o)
 .data          0x00000000        0x0 C:/Users/Ravonte/workspace_v10/freertos_builds_MSP_EXP432E401Y_release_gcc/Debug\libfreertos_builds_MSP_EXP432E401Y_release_gcc.a(ClockP_freertos.o)
 .bss           0x00000000        0x0 C:/Users/Ravonte/workspace_v10/freertos_builds_MSP_EXP432E401Y_release_gcc/Debug\libfreertos_builds_MSP_EXP432E401Y_release_gcc.a(ClockP_freertos.o)
 .text.ClockP_getSystemTickPeriod
                0x00000000       0x1a C:/Users/Ravonte/workspace_v10/freertos_builds_MSP_EXP432E401Y_release_gcc/Debug\libfreertos_builds_MSP_EXP432E401Y_release_gcc.a(ClockP_freertos.o)
 .text.ClockP_getSystemTicks
                0x00000000        0xe C:/Users/Ravonte/workspace_v10/freertos_builds_MSP_EXP432E401Y_release_gcc/Debug\libfreertos_builds_MSP_EXP432E401Y_release_gcc.a(ClockP_freertos.o)
 .text.ClockP_getTimeout
                0x00000000       0x2c C:/Users/Ravonte/workspace_v10/freertos_builds_MSP_EXP432E401Y_release_gcc/Debug\libfreertos_builds_MSP_EXP432E401Y_release_gcc.a(ClockP_freertos.o)
 .text.ClockP_isActive
                0x00000000       0x2a C:/Users/Ravonte/workspace_v10/freertos_builds_MSP_EXP432E401Y_release_gcc/Debug\libfreertos_builds_MSP_EXP432E401Y_release_gcc.a(ClockP_freertos.o)
 .text.ClockP_sleep
                0x00000000       0x38 C:/Users/Ravonte/workspace_v10/freertos_builds_MSP_EXP432E401Y_release_gcc/Debug\libfreertos_builds_MSP_EXP432E401Y_release_gcc.a(ClockP_freertos.o)
 .text.ClockP_usleep
                0x00000000       0x2c C:/Users/Ravonte/workspace_v10/freertos_builds_MSP_EXP432E401Y_release_gcc/Debug\libfreertos_builds_MSP_EXP432E401Y_release_gcc.a(ClockP_freertos.o)
 .text          0x00000000        0x0 C:/Users/Ravonte/workspace_v10/freertos_builds_MSP_EXP432E401Y_release_gcc/Debug\libfreertos_builds_MSP_EXP432E401Y_release_gcc.a(HwiPMSP432E4_freertos.o)
 .data          0x00000000        0x0 C:/Users/Ravonte/workspace_v10/freertos_builds_MSP_EXP432E401Y_release_gcc/Debug\libfreertos_builds_MSP_EXP432E401Y_release_gcc.a(HwiPMSP432E4_freertos.o)
 .bss           0x00000000        0x0 C:/Users/Ravonte/workspace_v10/freertos_builds_MSP_EXP432E401Y_release_gcc/Debug\libfreertos_builds_MSP_EXP432E401Y_release_gcc.a(HwiPMSP432E4_freertos.o)
 .text.HwiP_clearInterrupt
                0x00000000       0x18 C:/Users/Ravonte/workspace_v10/freertos_builds_MSP_EXP432E401Y_release_gcc/Debug\libfreertos_builds_MSP_EXP432E401Y_release_gcc.a(HwiPMSP432E4_freertos.o)
 .text.HwiP_plug
                0x00000000       0x1e C:/Users/Ravonte/workspace_v10/freertos_builds_MSP_EXP432E401Y_release_gcc/Debug\libfreertos_builds_MSP_EXP432E401Y_release_gcc.a(HwiPMSP432E4_freertos.o)
 .text.HwiP_post
                0x00000000       0x2c C:/Users/Ravonte/workspace_v10/freertos_builds_MSP_EXP432E401Y_release_gcc/Debug\libfreertos_builds_MSP_EXP432E401Y_release_gcc.a(HwiPMSP432E4_freertos.o)
 .text.HwiP_setFunc
                0x00000000       0x40 C:/Users/Ravonte/workspace_v10/freertos_builds_MSP_EXP432E401Y_release_gcc/Debug\libfreertos_builds_MSP_EXP432E401Y_release_gcc.a(HwiPMSP432E4_freertos.o)
 .text.HwiP_setPriority
                0x00000000       0x20 C:/Users/Ravonte/workspace_v10/freertos_builds_MSP_EXP432E401Y_release_gcc/Debug\libfreertos_builds_MSP_EXP432E401Y_release_gcc.a(HwiPMSP432E4_freertos.o)
 .text          0x00000000        0x0 C:/Users/Ravonte/workspace_v10/freertos_builds_MSP_EXP432E401Y_release_gcc/Debug\libfreertos_builds_MSP_EXP432E401Y_release_gcc.a(PowerMSP432E4_freertos.o)
 .data          0x00000000        0x0 C:/Users/Ravonte/workspace_v10/freertos_builds_MSP_EXP432E401Y_release_gcc/Debug\libfreertos_builds_MSP_EXP432E401Y_release_gcc.a(PowerMSP432E4_freertos.o)
 .bss           0x00000000        0x0 C:/Users/Ravonte/workspace_v10/freertos_builds_MSP_EXP432E401Y_release_gcc/Debug\libfreertos_builds_MSP_EXP432E401Y_release_gcc.a(PowerMSP432E4_freertos.o)
 .text          0x00000000        0x0 C:/Users/Ravonte/workspace_v10/freertos_builds_MSP_EXP432E401Y_release_gcc/Debug\libfreertos_builds_MSP_EXP432E401Y_release_gcc.a(SemaphoreP_freertos.o)
 .data          0x00000000        0x0 C:/Users/Ravonte/workspace_v10/freertos_builds_MSP_EXP432E401Y_release_gcc/Debug\libfreertos_builds_MSP_EXP432E401Y_release_gcc.a(SemaphoreP_freertos.o)
 .bss           0x00000000        0x0 C:/Users/Ravonte/workspace_v10/freertos_builds_MSP_EXP432E401Y_release_gcc/Debug\libfreertos_builds_MSP_EXP432E401Y_release_gcc.a(SemaphoreP_freertos.o)
 .text.SemaphoreP_create
                0x00000000       0x64 C:/Users/Ravonte/workspace_v10/freertos_builds_MSP_EXP432E401Y_release_gcc/Debug\libfreertos_builds_MSP_EXP432E401Y_release_gcc.a(SemaphoreP_freertos.o)
 .text.SemaphoreP_Params_init
                0x00000000       0x20 C:/Users/Ravonte/workspace_v10/freertos_builds_MSP_EXP432E401Y_release_gcc/Debug\libfreertos_builds_MSP_EXP432E401Y_release_gcc.a(SemaphoreP_freertos.o)
 .text          0x00000000        0x0 C:/Users/Ravonte/workspace_v10/freertos_builds_MSP_EXP432E401Y_release_gcc/Debug\libfreertos_builds_MSP_EXP432E401Y_release_gcc.a(SystemP_freertos.o)
 .data          0x00000000        0x0 C:/Users/Ravonte/workspace_v10/freertos_builds_MSP_EXP432E401Y_release_gcc/Debug\libfreertos_builds_MSP_EXP432E401Y_release_gcc.a(SystemP_freertos.o)
 .bss           0x00000000        0x0 C:/Users/Ravonte/workspace_v10/freertos_builds_MSP_EXP432E401Y_release_gcc/Debug\libfreertos_builds_MSP_EXP432E401Y_release_gcc.a(SystemP_freertos.o)
 .text.SystemP_snprintf
                0x00000000       0x30 C:/Users/Ravonte/workspace_v10/freertos_builds_MSP_EXP432E401Y_release_gcc/Debug\libfreertos_builds_MSP_EXP432E401Y_release_gcc.a(SystemP_freertos.o)
 .text          0x00000000        0x0 C:/Users/Ravonte/workspace_v10/freertos_builds_MSP_EXP432E401Y_release_gcc/Debug\libfreertos_builds_MSP_EXP432E401Y_release_gcc.a(heap_4.o)
 .data          0x00000000        0x0 C:/Users/Ravonte/workspace_v10/freertos_builds_MSP_EXP432E401Y_release_gcc/Debug\libfreertos_builds_MSP_EXP432E401Y_release_gcc.a(heap_4.o)
 .bss           0x00000000        0x0 C:/Users/Ravonte/workspace_v10/freertos_builds_MSP_EXP432E401Y_release_gcc/Debug\libfreertos_builds_MSP_EXP432E401Y_release_gcc.a(heap_4.o)
 .rodata.xHeapStructSize
                0x00000000        0x4 C:/Users/Ravonte/workspace_v10/freertos_builds_MSP_EXP432E401Y_release_gcc/Debug\libfreertos_builds_MSP_EXP432E401Y_release_gcc.a(heap_4.o)
 .text.xPortGetFreeHeapSize
                0x00000000       0x18 C:/Users/Ravonte/workspace_v10/freertos_builds_MSP_EXP432E401Y_release_gcc/Debug\libfreertos_builds_MSP_EXP432E401Y_release_gcc.a(heap_4.o)
 .text.xPortGetMinimumEverFreeHeapSize
                0x00000000       0x18 C:/Users/Ravonte/workspace_v10/freertos_builds_MSP_EXP432E401Y_release_gcc/Debug\libfreertos_builds_MSP_EXP432E401Y_release_gcc.a(heap_4.o)
 .text.vPortInitialiseBlocks
                0x00000000        0xe C:/Users/Ravonte/workspace_v10/freertos_builds_MSP_EXP432E401Y_release_gcc/Debug\libfreertos_builds_MSP_EXP432E401Y_release_gcc.a(heap_4.o)
 .text.vPortGetHeapStats
                0x00000000       0xbc C:/Users/Ravonte/workspace_v10/freertos_builds_MSP_EXP432E401Y_release_gcc/Debug\libfreertos_builds_MSP_EXP432E401Y_release_gcc.a(heap_4.o)
 .text          0x00000000        0x0 C:/Users/Ravonte/workspace_v10/freertos_builds_MSP_EXP432E401Y_release_gcc/Debug\libfreertos_builds_MSP_EXP432E401Y_release_gcc.a(queue.o)
 .data          0x00000000        0x0 C:/Users/Ravonte/workspace_v10/freertos_builds_MSP_EXP432E401Y_release_gcc/Debug\libfreertos_builds_MSP_EXP432E401Y_release_gcc.a(queue.o)
 .bss           0x00000000        0x0 C:/Users/Ravonte/workspace_v10/freertos_builds_MSP_EXP432E401Y_release_gcc/Debug\libfreertos_builds_MSP_EXP432E401Y_release_gcc.a(queue.o)
 .text.prvInitialiseMutex
                0x00000000       0x34 C:/Users/Ravonte/workspace_v10/freertos_builds_MSP_EXP432E401Y_release_gcc/Debug\libfreertos_builds_MSP_EXP432E401Y_release_gcc.a(queue.o)
 .text.xQueueCreateMutex
                0x00000000       0x30 C:/Users/Ravonte/workspace_v10/freertos_builds_MSP_EXP432E401Y_release_gcc/Debug\libfreertos_builds_MSP_EXP432E401Y_release_gcc.a(queue.o)
 .text.xQueueGiveMutexRecursive
                0x00000000       0x68 C:/Users/Ravonte/workspace_v10/freertos_builds_MSP_EXP432E401Y_release_gcc/Debug\libfreertos_builds_MSP_EXP432E401Y_release_gcc.a(queue.o)
 .text.xQueueTakeMutexRecursive
                0x00000000       0x6c C:/Users/Ravonte/workspace_v10/freertos_builds_MSP_EXP432E401Y_release_gcc/Debug\libfreertos_builds_MSP_EXP432E401Y_release_gcc.a(queue.o)
 .text.xQueueCreateCountingSemaphore
                0x00000000       0x66 C:/Users/Ravonte/workspace_v10/freertos_builds_MSP_EXP432E401Y_release_gcc/Debug\libfreertos_builds_MSP_EXP432E401Y_release_gcc.a(queue.o)
 .text.xQueuePeek
                0x00000000      0x1c4 C:/Users/Ravonte/workspace_v10/freertos_builds_MSP_EXP432E401Y_release_gcc/Debug\libfreertos_builds_MSP_EXP432E401Y_release_gcc.a(queue.o)
 .text.xQueuePeekFromISR
                0x00000000       0xd2 C:/Users/Ravonte/workspace_v10/freertos_builds_MSP_EXP432E401Y_release_gcc/Debug\libfreertos_builds_MSP_EXP432E401Y_release_gcc.a(queue.o)
 .text.uxQueueMessagesWaiting
                0x00000000       0x3c C:/Users/Ravonte/workspace_v10/freertos_builds_MSP_EXP432E401Y_release_gcc/Debug\libfreertos_builds_MSP_EXP432E401Y_release_gcc.a(queue.o)
 .text.uxQueueSpacesAvailable
                0x00000000       0x46 C:/Users/Ravonte/workspace_v10/freertos_builds_MSP_EXP432E401Y_release_gcc/Debug\libfreertos_builds_MSP_EXP432E401Y_release_gcc.a(queue.o)
 .text.uxQueueMessagesWaitingFromISR
                0x00000000       0x3c C:/Users/Ravonte/workspace_v10/freertos_builds_MSP_EXP432E401Y_release_gcc/Debug\libfreertos_builds_MSP_EXP432E401Y_release_gcc.a(queue.o)
 .text.uxQueueGetQueueNumber
                0x00000000       0x18 C:/Users/Ravonte/workspace_v10/freertos_builds_MSP_EXP432E401Y_release_gcc/Debug\libfreertos_builds_MSP_EXP432E401Y_release_gcc.a(queue.o)
 .text.vQueueSetQueueNumber
                0x00000000       0x1c C:/Users/Ravonte/workspace_v10/freertos_builds_MSP_EXP432E401Y_release_gcc/Debug\libfreertos_builds_MSP_EXP432E401Y_release_gcc.a(queue.o)
 .text.ucQueueGetQueueType
                0x00000000       0x1a C:/Users/Ravonte/workspace_v10/freertos_builds_MSP_EXP432E401Y_release_gcc/Debug\libfreertos_builds_MSP_EXP432E401Y_release_gcc.a(queue.o)
 .text.xQueueIsQueueEmptyFromISR
                0x00000000       0x48 C:/Users/Ravonte/workspace_v10/freertos_builds_MSP_EXP432E401Y_release_gcc/Debug\libfreertos_builds_MSP_EXP432E401Y_release_gcc.a(queue.o)
 .text.xQueueIsQueueFullFromISR
                0x00000000       0x4c C:/Users/Ravonte/workspace_v10/freertos_builds_MSP_EXP432E401Y_release_gcc/Debug\libfreertos_builds_MSP_EXP432E401Y_release_gcc.a(queue.o)
 .text          0x00000000        0x0 C:/Users/Ravonte/workspace_v10/freertos_builds_MSP_EXP432E401Y_release_gcc/Debug\libfreertos_builds_MSP_EXP432E401Y_release_gcc.a(tasks.o)
 .data          0x00000000        0x0 C:/Users/Ravonte/workspace_v10/freertos_builds_MSP_EXP432E401Y_release_gcc/Debug\libfreertos_builds_MSP_EXP432E401Y_release_gcc.a(tasks.o)
 .bss           0x00000000        0x0 C:/Users/Ravonte/workspace_v10/freertos_builds_MSP_EXP432E401Y_release_gcc/Debug\libfreertos_builds_MSP_EXP432E401Y_release_gcc.a(tasks.o)
 .text.xTaskDelayUntil
                0x00000000       0xfc C:/Users/Ravonte/workspace_v10/freertos_builds_MSP_EXP432E401Y_release_gcc/Debug\libfreertos_builds_MSP_EXP432E401Y_release_gcc.a(tasks.o)
 .text.eTaskGetState
                0x00000000       0xf4 C:/Users/Ravonte/workspace_v10/freertos_builds_MSP_EXP432E401Y_release_gcc/Debug\libfreertos_builds_MSP_EXP432E401Y_release_gcc.a(tasks.o)
 .text.uxTaskPriorityGet
                0x00000000       0x34 C:/Users/Ravonte/workspace_v10/freertos_builds_MSP_EXP432E401Y_release_gcc/Debug\libfreertos_builds_MSP_EXP432E401Y_release_gcc.a(tasks.o)
 .text.uxTaskPriorityGetFromISR
                0x00000000       0x58 C:/Users/Ravonte/workspace_v10/freertos_builds_MSP_EXP432E401Y_release_gcc/Debug\libfreertos_builds_MSP_EXP432E401Y_release_gcc.a(tasks.o)
 .text.vTaskPrioritySet
                0x00000000      0x154 C:/Users/Ravonte/workspace_v10/freertos_builds_MSP_EXP432E401Y_release_gcc/Debug\libfreertos_builds_MSP_EXP432E401Y_release_gcc.a(tasks.o)
 .text.prvTaskIsTaskSuspended
                0x00000000       0x64 C:/Users/Ravonte/workspace_v10/freertos_builds_MSP_EXP432E401Y_release_gcc/Debug\libfreertos_builds_MSP_EXP432E401Y_release_gcc.a(tasks.o)
 .text.vTaskResume
                0x00000000       0xbc C:/Users/Ravonte/workspace_v10/freertos_builds_MSP_EXP432E401Y_release_gcc/Debug\libfreertos_builds_MSP_EXP432E401Y_release_gcc.a(tasks.o)
 .text.vTaskEndScheduler
                0x00000000       0x30 C:/Users/Ravonte/workspace_v10/freertos_builds_MSP_EXP432E401Y_release_gcc/Debug\libfreertos_builds_MSP_EXP432E401Y_release_gcc.a(tasks.o)
 .text.xTaskGetTickCountFromISR
                0x00000000       0x24 C:/Users/Ravonte/workspace_v10/freertos_builds_MSP_EXP432E401Y_release_gcc/Debug\libfreertos_builds_MSP_EXP432E401Y_release_gcc.a(tasks.o)
 .text.uxTaskGetNumberOfTasks
                0x00000000       0x18 C:/Users/Ravonte/workspace_v10/freertos_builds_MSP_EXP432E401Y_release_gcc/Debug\libfreertos_builds_MSP_EXP432E401Y_release_gcc.a(tasks.o)
 .text.pcTaskGetName
                0x00000000       0x48 C:/Users/Ravonte/workspace_v10/freertos_builds_MSP_EXP432E401Y_release_gcc/Debug\libfreertos_builds_MSP_EXP432E401Y_release_gcc.a(tasks.o)
 .text.uxTaskGetSystemState
                0x00000000      0x11c C:/Users/Ravonte/workspace_v10/freertos_builds_MSP_EXP432E401Y_release_gcc/Debug\libfreertos_builds_MSP_EXP432E401Y_release_gcc.a(tasks.o)
 .text.vTaskStepTick
                0x00000000       0x50 C:/Users/Ravonte/workspace_v10/freertos_builds_MSP_EXP432E401Y_release_gcc/Debug\libfreertos_builds_MSP_EXP432E401Y_release_gcc.a(tasks.o)
 .text.xTaskCatchUpTicks
                0x00000000       0x50 C:/Users/Ravonte/workspace_v10/freertos_builds_MSP_EXP432E401Y_release_gcc/Debug\libfreertos_builds_MSP_EXP432E401Y_release_gcc.a(tasks.o)
 .text.xTaskGetApplicationTaskTagFromISR
                0x00000000       0x58 C:/Users/Ravonte/workspace_v10/freertos_builds_MSP_EXP432E401Y_release_gcc/Debug\libfreertos_builds_MSP_EXP432E401Y_release_gcc.a(tasks.o)
 .text.xTaskCallApplicationTaskHook
                0x00000000       0x44 C:/Users/Ravonte/workspace_v10/freertos_builds_MSP_EXP432E401Y_release_gcc/Debug\libfreertos_builds_MSP_EXP432E401Y_release_gcc.a(tasks.o)
 .text.vTaskPlaceOnUnorderedEventList
                0x00000000       0x78 C:/Users/Ravonte/workspace_v10/freertos_builds_MSP_EXP432E401Y_release_gcc/Debug\libfreertos_builds_MSP_EXP432E401Y_release_gcc.a(tasks.o)
 .text.vTaskRemoveFromUnorderedEventList
                0x00000000       0xc8 C:/Users/Ravonte/workspace_v10/freertos_builds_MSP_EXP432E401Y_release_gcc/Debug\libfreertos_builds_MSP_EXP432E401Y_release_gcc.a(tasks.o)
 .text.vTaskSetTimeOutState
                0x00000000       0x4c C:/Users/Ravonte/workspace_v10/freertos_builds_MSP_EXP432E401Y_release_gcc/Debug\libfreertos_builds_MSP_EXP432E401Y_release_gcc.a(tasks.o)
 .text.uxTaskGetTaskNumber
                0x00000000       0x2c C:/Users/Ravonte/workspace_v10/freertos_builds_MSP_EXP432E401Y_release_gcc/Debug\libfreertos_builds_MSP_EXP432E401Y_release_gcc.a(tasks.o)
 .text.vTaskSetTaskNumber
                0x00000000       0x26 C:/Users/Ravonte/workspace_v10/freertos_builds_MSP_EXP432E401Y_release_gcc/Debug\libfreertos_builds_MSP_EXP432E401Y_release_gcc.a(tasks.o)
 .text.eTaskConfirmSleepModeStatus
                0x00000000       0x70 C:/Users/Ravonte/workspace_v10/freertos_builds_MSP_EXP432E401Y_release_gcc/Debug\libfreertos_builds_MSP_EXP432E401Y_release_gcc.a(tasks.o)
 .text.vTaskSetThreadLocalStoragePointer
                0x00000000       0x5c C:/Users/Ravonte/workspace_v10/freertos_builds_MSP_EXP432E401Y_release_gcc/Debug\libfreertos_builds_MSP_EXP432E401Y_release_gcc.a(tasks.o)
 .text.pvTaskGetThreadLocalStoragePointer
                0x00000000       0x4c C:/Users/Ravonte/workspace_v10/freertos_builds_MSP_EXP432E401Y_release_gcc/Debug\libfreertos_builds_MSP_EXP432E401Y_release_gcc.a(tasks.o)
 .text.vTaskGetInfo
                0x00000000       0xcc C:/Users/Ravonte/workspace_v10/freertos_builds_MSP_EXP432E401Y_release_gcc/Debug\libfreertos_builds_MSP_EXP432E401Y_release_gcc.a(tasks.o)
 .text.prvListTasksWithinSingleList
                0x00000000       0xa4 C:/Users/Ravonte/workspace_v10/freertos_builds_MSP_EXP432E401Y_release_gcc/Debug\libfreertos_builds_MSP_EXP432E401Y_release_gcc.a(tasks.o)
 .text.prvTaskCheckFreeStackSpace
                0x00000000       0x38 C:/Users/Ravonte/workspace_v10/freertos_builds_MSP_EXP432E401Y_release_gcc/Debug\libfreertos_builds_MSP_EXP432E401Y_release_gcc.a(tasks.o)
 .text.uxTaskResetEventItemValue
                0x00000000       0x30 C:/Users/Ravonte/workspace_v10/freertos_builds_MSP_EXP432E401Y_release_gcc/Debug\libfreertos_builds_MSP_EXP432E401Y_release_gcc.a(tasks.o)
 .text.ulTaskGenericNotifyTake
                0x00000000       0xd0 C:/Users/Ravonte/workspace_v10/freertos_builds_MSP_EXP432E401Y_release_gcc/Debug\libfreertos_builds_MSP_EXP432E401Y_release_gcc.a(tasks.o)
 .text.xTaskGenericNotifyWait
                0x00000000      0x100 C:/Users/Ravonte/workspace_v10/freertos_builds_MSP_EXP432E401Y_release_gcc/Debug\libfreertos_builds_MSP_EXP432E401Y_release_gcc.a(tasks.o)
 .text.xTaskGenericNotify
                0x00000000      0x1c4 C:/Users/Ravonte/workspace_v10/freertos_builds_MSP_EXP432E401Y_release_gcc/Debug\libfreertos_builds_MSP_EXP432E401Y_release_gcc.a(tasks.o)
 .text.xTaskGenericNotifyFromISR
                0x00000000      0x204 C:/Users/Ravonte/workspace_v10/freertos_builds_MSP_EXP432E401Y_release_gcc/Debug\libfreertos_builds_MSP_EXP432E401Y_release_gcc.a(tasks.o)
 .text.vTaskGenericNotifyGiveFromISR
                0x00000000      0x158 C:/Users/Ravonte/workspace_v10/freertos_builds_MSP_EXP432E401Y_release_gcc/Debug\libfreertos_builds_MSP_EXP432E401Y_release_gcc.a(tasks.o)
 .text.xTaskGenericNotifyStateClear
                0x00000000       0x74 C:/Users/Ravonte/workspace_v10/freertos_builds_MSP_EXP432E401Y_release_gcc/Debug\libfreertos_builds_MSP_EXP432E401Y_release_gcc.a(tasks.o)
 .text.ulTaskGenericNotifyValueClear
                0x00000000       0x5c C:/Users/Ravonte/workspace_v10/freertos_builds_MSP_EXP432E401Y_release_gcc/Debug\libfreertos_builds_MSP_EXP432E401Y_release_gcc.a(tasks.o)
 .text          0x00000000        0x0 C:/Users/Ravonte/workspace_v10/freertos_builds_MSP_EXP432E401Y_release_gcc/Debug\libfreertos_builds_MSP_EXP432E401Y_release_gcc.a(timers.o)
 .data          0x00000000        0x0 C:/Users/Ravonte/workspace_v10/freertos_builds_MSP_EXP432E401Y_release_gcc/Debug\libfreertos_builds_MSP_EXP432E401Y_release_gcc.a(timers.o)
 .bss           0x00000000        0x0 C:/Users/Ravonte/workspace_v10/freertos_builds_MSP_EXP432E401Y_release_gcc/Debug\libfreertos_builds_MSP_EXP432E401Y_release_gcc.a(timers.o)
 .text.xTimerGetTimerDaemonTaskHandle
                0x00000000       0x38 C:/Users/Ravonte/workspace_v10/freertos_builds_MSP_EXP432E401Y_release_gcc/Debug\libfreertos_builds_MSP_EXP432E401Y_release_gcc.a(timers.o)
 .text.xTimerGetPeriod
                0x00000000       0x38 C:/Users/Ravonte/workspace_v10/freertos_builds_MSP_EXP432E401Y_release_gcc/Debug\libfreertos_builds_MSP_EXP432E401Y_release_gcc.a(timers.o)
 .text.vTimerSetReloadMode
                0x00000000       0x66 C:/Users/Ravonte/workspace_v10/freertos_builds_MSP_EXP432E401Y_release_gcc/Debug\libfreertos_builds_MSP_EXP432E401Y_release_gcc.a(timers.o)
 .text.uxTimerGetReloadMode
                0x00000000       0x52 C:/Users/Ravonte/workspace_v10/freertos_builds_MSP_EXP432E401Y_release_gcc/Debug\libfreertos_builds_MSP_EXP432E401Y_release_gcc.a(timers.o)
 .text.xTimerGetExpiryTime
                0x00000000       0x3c C:/Users/Ravonte/workspace_v10/freertos_builds_MSP_EXP432E401Y_release_gcc/Debug\libfreertos_builds_MSP_EXP432E401Y_release_gcc.a(timers.o)
 .text.pcTimerGetName
                0x00000000       0x38 C:/Users/Ravonte/workspace_v10/freertos_builds_MSP_EXP432E401Y_release_gcc/Debug\libfreertos_builds_MSP_EXP432E401Y_release_gcc.a(timers.o)
 .text.xTimerIsTimerActive
                0x00000000       0x52 C:/Users/Ravonte/workspace_v10/freertos_builds_MSP_EXP432E401Y_release_gcc/Debug\libfreertos_builds_MSP_EXP432E401Y_release_gcc.a(timers.o)
 .text.vTimerSetTimerID
                0x00000000       0x40 C:/Users/Ravonte/workspace_v10/freertos_builds_MSP_EXP432E401Y_release_gcc/Debug\libfreertos_builds_MSP_EXP432E401Y_release_gcc.a(timers.o)
 .text.uxTimerGetTimerNumber
                0x00000000       0x18 C:/Users/Ravonte/workspace_v10/freertos_builds_MSP_EXP432E401Y_release_gcc/Debug\libfreertos_builds_MSP_EXP432E401Y_release_gcc.a(timers.o)
 .text.vTimerSetTimerNumber
                0x00000000       0x1c C:/Users/Ravonte/workspace_v10/freertos_builds_MSP_EXP432E401Y_release_gcc/Debug\libfreertos_builds_MSP_EXP432E401Y_release_gcc.a(timers.o)
 .text          0x00000000        0x0 C:/Users/Ravonte/workspace_v10/freertos_builds_MSP_EXP432E401Y_release_gcc/Debug\libfreertos_builds_MSP_EXP432E401Y_release_gcc.a(port.o)
 .data          0x00000000        0x0 C:/Users/Ravonte/workspace_v10/freertos_builds_MSP_EXP432E401Y_release_gcc/Debug\libfreertos_builds_MSP_EXP432E401Y_release_gcc.a(port.o)
 .bss           0x00000000        0x0 C:/Users/Ravonte/workspace_v10/freertos_builds_MSP_EXP432E401Y_release_gcc/Debug\libfreertos_builds_MSP_EXP432E401Y_release_gcc.a(port.o)
 .rodata.pcInterruptPriorityRegisters
                0x00000000        0x4 C:/Users/Ravonte/workspace_v10/freertos_builds_MSP_EXP432E401Y_release_gcc/Debug\libfreertos_builds_MSP_EXP432E401Y_release_gcc.a(port.o)
 .text.vPortEndScheduler
                0x00000000       0x38 C:/Users/Ravonte/workspace_v10/freertos_builds_MSP_EXP432E401Y_release_gcc/Debug\libfreertos_builds_MSP_EXP432E401Y_release_gcc.a(port.o)
 .text.vPortSuppressTicksAndSleep
                0x00000000      0x188 C:/Users/Ravonte/workspace_v10/freertos_builds_MSP_EXP432E401Y_release_gcc/Debug\libfreertos_builds_MSP_EXP432E401Y_release_gcc.a(port.o)
 .text          0x00000000        0x0 C:/Users/Ravonte/workspace_v10/freertos_builds_MSP_EXP432E401Y_release_gcc/Debug\libfreertos_builds_MSP_EXP432E401Y_release_gcc.a(startup_msp432e4_gcc.o)
 .data          0x00000000        0x0 C:/Users/Ravonte/workspace_v10/freertos_builds_MSP_EXP432E401Y_release_gcc/Debug\libfreertos_builds_MSP_EXP432E401Y_release_gcc.a(startup_msp432e4_gcc.o)
 .bss           0x00000000        0x0 C:/Users/Ravonte/workspace_v10/freertos_builds_MSP_EXP432E401Y_release_gcc/Debug\libfreertos_builds_MSP_EXP432E401Y_release_gcc.a(startup_msp432e4_gcc.o)
 .data.__dso_handle
                0x00000000        0x4 C:/Users/Ravonte/workspace_v10/freertos_builds_MSP_EXP432E401Y_release_gcc/Debug\libfreertos_builds_MSP_EXP432E401Y_release_gcc.a(startup_msp432e4_gcc.o)
 .text          0x00000000        0x0 C:/Users/Ravonte/workspace_v10/freertos_builds_MSP_EXP432E401Y_release_gcc/Debug\libfreertos_builds_MSP_EXP432E401Y_release_gcc.a(pthread.o)
 .data          0x00000000        0x0 C:/Users/Ravonte/workspace_v10/freertos_builds_MSP_EXP432E401Y_release_gcc/Debug\libfreertos_builds_MSP_EXP432E401Y_release_gcc.a(pthread.o)
 .bss           0x00000000        0x0 C:/Users/Ravonte/workspace_v10/freertos_builds_MSP_EXP432E401Y_release_gcc/Debug\libfreertos_builds_MSP_EXP432E401Y_release_gcc.a(pthread.o)
 .rodata.tname  0x00000000        0x4 C:/Users/Ravonte/workspace_v10/freertos_builds_MSP_EXP432E401Y_release_gcc/Debug\libfreertos_builds_MSP_EXP432E401Y_release_gcc.a(pthread.o)
 .bss.mutex     0x00000000        0x4 C:/Users/Ravonte/workspace_v10/freertos_builds_MSP_EXP432E401Y_release_gcc/Debug\libfreertos_builds_MSP_EXP432E401Y_release_gcc.a(pthread.o)
 .bss.isInitialized
                0x00000000        0x1 C:/Users/Ravonte/workspace_v10/freertos_builds_MSP_EXP432E401Y_release_gcc/Debug\libfreertos_builds_MSP_EXP432E401Y_release_gcc.a(pthread.o)
 .text.pthread_attr_destroy
                0x00000000       0x16 C:/Users/Ravonte/workspace_v10/freertos_builds_MSP_EXP432E401Y_release_gcc/Debug\libfreertos_builds_MSP_EXP432E401Y_release_gcc.a(pthread.o)
 .text.pthread_attr_getdetachstate
                0x00000000       0x20 C:/Users/Ravonte/workspace_v10/freertos_builds_MSP_EXP432E401Y_release_gcc/Debug\libfreertos_builds_MSP_EXP432E401Y_release_gcc.a(pthread.o)
 .text.pthread_attr_getguardsize
                0x00000000       0x20 C:/Users/Ravonte/workspace_v10/freertos_builds_MSP_EXP432E401Y_release_gcc/Debug\libfreertos_builds_MSP_EXP432E401Y_release_gcc.a(pthread.o)
 .text.pthread_attr_getschedparam
                0x00000000       0x20 C:/Users/Ravonte/workspace_v10/freertos_builds_MSP_EXP432E401Y_release_gcc/Debug\libfreertos_builds_MSP_EXP432E401Y_release_gcc.a(pthread.o)
 .text.pthread_attr_getstack
                0x00000000       0x2a C:/Users/Ravonte/workspace_v10/freertos_builds_MSP_EXP432E401Y_release_gcc/Debug\libfreertos_builds_MSP_EXP432E401Y_release_gcc.a(pthread.o)
 .text.pthread_attr_getstacksize
                0x00000000       0x20 C:/Users/Ravonte/workspace_v10/freertos_builds_MSP_EXP432E401Y_release_gcc/Debug\libfreertos_builds_MSP_EXP432E401Y_release_gcc.a(pthread.o)
 .text.pthread_attr_setguardsize
                0x00000000       0x1e C:/Users/Ravonte/workspace_v10/freertos_builds_MSP_EXP432E401Y_release_gcc/Debug\libfreertos_builds_MSP_EXP432E401Y_release_gcc.a(pthread.o)
 .text.pthread_cancel
                0x00000000       0x82 C:/Users/Ravonte/workspace_v10/freertos_builds_MSP_EXP432E401Y_release_gcc/Debug\libfreertos_builds_MSP_EXP432E401Y_release_gcc.a(pthread.o)
 .text.pthread_detach
                0x00000000       0x44 C:/Users/Ravonte/workspace_v10/freertos_builds_MSP_EXP432E401Y_release_gcc/Debug\libfreertos_builds_MSP_EXP432E401Y_release_gcc.a(pthread.o)
 .text.pthread_equal
                0x00000000       0x24 C:/Users/Ravonte/workspace_v10/freertos_builds_MSP_EXP432E401Y_release_gcc/Debug\libfreertos_builds_MSP_EXP432E401Y_release_gcc.a(pthread.o)
 .text.pthread_getschedparam
                0x00000000       0x2c C:/Users/Ravonte/workspace_v10/freertos_builds_MSP_EXP432E401Y_release_gcc/Debug\libfreertos_builds_MSP_EXP432E401Y_release_gcc.a(pthread.o)
 .text.pthread_getspecific
                0x00000000       0x7c C:/Users/Ravonte/workspace_v10/freertos_builds_MSP_EXP432E401Y_release_gcc/Debug\libfreertos_builds_MSP_EXP432E401Y_release_gcc.a(pthread.o)
 .text.pthread_join
                0x00000000       0x8c C:/Users/Ravonte/workspace_v10/freertos_builds_MSP_EXP432E401Y_release_gcc/Debug\libfreertos_builds_MSP_EXP432E401Y_release_gcc.a(pthread.o)
 .text.pthread_key_create
                0x00000000       0x88 C:/Users/Ravonte/workspace_v10/freertos_builds_MSP_EXP432E401Y_release_gcc/Debug\libfreertos_builds_MSP_EXP432E401Y_release_gcc.a(pthread.o)
 .text.pthread_key_delete
                0x00000000       0x98 C:/Users/Ravonte/workspace_v10/freertos_builds_MSP_EXP432E401Y_release_gcc/Debug\libfreertos_builds_MSP_EXP432E401Y_release_gcc.a(pthread.o)
 .text.pthread_once
                0x00000000       0x4c C:/Users/Ravonte/workspace_v10/freertos_builds_MSP_EXP432E401Y_release_gcc/Debug\libfreertos_builds_MSP_EXP432E401Y_release_gcc.a(pthread.o)
 .text.pthread_setschedparam
                0x00000000       0x46 C:/Users/Ravonte/workspace_v10/freertos_builds_MSP_EXP432E401Y_release_gcc/Debug\libfreertos_builds_MSP_EXP432E401Y_release_gcc.a(pthread.o)
 .text.pthread_setspecific
                0x00000000      0x118 C:/Users/Ravonte/workspace_v10/freertos_builds_MSP_EXP432E401Y_release_gcc/Debug\libfreertos_builds_MSP_EXP432E401Y_release_gcc.a(pthread.o)
 .text._pthread_cleanup_push
                0x00000000       0x3a C:/Users/Ravonte/workspace_v10/freertos_builds_MSP_EXP432E401Y_release_gcc/Debug\libfreertos_builds_MSP_EXP432E401Y_release_gcc.a(pthread.o)
 .text          0x00000000        0x0 C:/Users/Ravonte/workspace_v10/freertos_builds_MSP_EXP432E401Y_release_gcc/Debug\libfreertos_builds_MSP_EXP432E401Y_release_gcc.a(sleep.o)
 .data          0x00000000        0x0 C:/Users/Ravonte/workspace_v10/freertos_builds_MSP_EXP432E401Y_release_gcc/Debug\libfreertos_builds_MSP_EXP432E401Y_release_gcc.a(sleep.o)
 .bss           0x00000000        0x0 C:/Users/Ravonte/workspace_v10/freertos_builds_MSP_EXP432E401Y_release_gcc/Debug\libfreertos_builds_MSP_EXP432E401Y_release_gcc.a(sleep.o)
 .text.nanosleep
                0x00000000       0xcc C:/Users/Ravonte/workspace_v10/freertos_builds_MSP_EXP432E401Y_release_gcc/Debug\libfreertos_builds_MSP_EXP432E401Y_release_gcc.a(sleep.o)
 .text.usleep   0x00000000       0x4c C:/Users/Ravonte/workspace_v10/freertos_builds_MSP_EXP432E401Y_release_gcc/Debug\libfreertos_builds_MSP_EXP432E401Y_release_gcc.a(sleep.o)
 .text          0x00000000        0x0 C:/Users/Ravonte/workspace_v10/freertos_builds_MSP_EXP432E401Y_release_gcc/Debug\libfreertos_builds_MSP_EXP432E401Y_release_gcc.a(list.o)
 .data          0x00000000        0x0 C:/Users/Ravonte/workspace_v10/freertos_builds_MSP_EXP432E401Y_release_gcc/Debug\libfreertos_builds_MSP_EXP432E401Y_release_gcc.a(list.o)
 .bss           0x00000000        0x0 C:/Users/Ravonte/workspace_v10/freertos_builds_MSP_EXP432E401Y_release_gcc/Debug\libfreertos_builds_MSP_EXP432E401Y_release_gcc.a(list.o)
 .text          0x00000000        0x0 C:/ti/simplelink_msp432e4_sdk_4_20_00_12/source\ti/devices/msp432e4/driverlib/lib/gcc/m4f/msp432e4_driverlib.a(fpu.o)
 .data          0x00000000        0x0 C:/ti/simplelink_msp432e4_sdk_4_20_00_12/source\ti/devices/msp432e4/driverlib/lib/gcc/m4f/msp432e4_driverlib.a(fpu.o)
 .bss           0x00000000        0x0 C:/ti/simplelink_msp432e4_sdk_4_20_00_12/source\ti/devices/msp432e4/driverlib/lib/gcc/m4f/msp432e4_driverlib.a(fpu.o)
 .text.FPUDisable
                0x00000000       0x20 C:/ti/simplelink_msp432e4_sdk_4_20_00_12/source\ti/devices/msp432e4/driverlib/lib/gcc/m4f/msp432e4_driverlib.a(fpu.o)
 .text.FPUStackingEnable
                0x00000000       0x24 C:/ti/simplelink_msp432e4_sdk_4_20_00_12/source\ti/devices/msp432e4/driverlib/lib/gcc/m4f/msp432e4_driverlib.a(fpu.o)
 .text.FPULazyStackingEnable
                0x00000000       0x20 C:/ti/simplelink_msp432e4_sdk_4_20_00_12/source\ti/devices/msp432e4/driverlib/lib/gcc/m4f/msp432e4_driverlib.a(fpu.o)
 .text.FPUStackingDisable
                0x00000000       0x20 C:/ti/simplelink_msp432e4_sdk_4_20_00_12/source\ti/devices/msp432e4/driverlib/lib/gcc/m4f/msp432e4_driverlib.a(fpu.o)
 .text.FPUHalfPrecisionModeSet
                0x00000000       0x28 C:/ti/simplelink_msp432e4_sdk_4_20_00_12/source\ti/devices/msp432e4/driverlib/lib/gcc/m4f/msp432e4_driverlib.a(fpu.o)
 .text.FPUNaNModeSet
                0x00000000       0x28 C:/ti/simplelink_msp432e4_sdk_4_20_00_12/source\ti/devices/msp432e4/driverlib/lib/gcc/m4f/msp432e4_driverlib.a(fpu.o)
 .text.FPUFlushToZeroModeSet
                0x00000000       0x28 C:/ti/simplelink_msp432e4_sdk_4_20_00_12/source\ti/devices/msp432e4/driverlib/lib/gcc/m4f/msp432e4_driverlib.a(fpu.o)
 .text.FPURoundingModeSet
                0x00000000       0x28 C:/ti/simplelink_msp432e4_sdk_4_20_00_12/source\ti/devices/msp432e4/driverlib/lib/gcc/m4f/msp432e4_driverlib.a(fpu.o)
 .text          0x00000000        0x0 C:/ti/simplelink_msp432e4_sdk_4_20_00_12/source\ti/devices/msp432e4/driverlib/lib/gcc/m4f/msp432e4_driverlib.a(gpio.o)
 .data          0x00000000        0x0 C:/ti/simplelink_msp432e4_sdk_4_20_00_12/source\ti/devices/msp432e4/driverlib/lib/gcc/m4f/msp432e4_driverlib.a(gpio.o)
 .bss           0x00000000        0x0 C:/ti/simplelink_msp432e4_sdk_4_20_00_12/source\ti/devices/msp432e4/driverlib/lib/gcc/m4f/msp432e4_driverlib.a(gpio.o)
 .rodata.g_ppui32GPIOIntMap
                0x00000000       0x90 C:/ti/simplelink_msp432e4_sdk_4_20_00_12/source\ti/devices/msp432e4/driverlib/lib/gcc/m4f/msp432e4_driverlib.a(gpio.o)
 .rodata.g_ui32GPIOIntMapRows
                0x00000000        0x4 C:/ti/simplelink_msp432e4_sdk_4_20_00_12/source\ti/devices/msp432e4/driverlib/lib/gcc/m4f/msp432e4_driverlib.a(gpio.o)
 .text._GPIOIntNumberGet
                0x00000000       0x54 C:/ti/simplelink_msp432e4_sdk_4_20_00_12/source\ti/devices/msp432e4/driverlib/lib/gcc/m4f/msp432e4_driverlib.a(gpio.o)
 .text.GPIODirModeGet
                0x00000000       0x5a C:/ti/simplelink_msp432e4_sdk_4_20_00_12/source\ti/devices/msp432e4/driverlib/lib/gcc/m4f/msp432e4_driverlib.a(gpio.o)
 .text.GPIOIntTypeGet
                0x00000000       0x96 C:/ti/simplelink_msp432e4_sdk_4_20_00_12/source\ti/devices/msp432e4/driverlib/lib/gcc/m4f/msp432e4_driverlib.a(gpio.o)
 .text.GPIOPadConfigGet
                0x00000000      0x182 C:/ti/simplelink_msp432e4_sdk_4_20_00_12/source\ti/devices/msp432e4/driverlib/lib/gcc/m4f/msp432e4_driverlib.a(gpio.o)
 .text.GPIOIntEnable
                0x00000000       0x2c C:/ti/simplelink_msp432e4_sdk_4_20_00_12/source\ti/devices/msp432e4/driverlib/lib/gcc/m4f/msp432e4_driverlib.a(gpio.o)
 .text.GPIOIntDisable
                0x00000000       0x2c C:/ti/simplelink_msp432e4_sdk_4_20_00_12/source\ti/devices/msp432e4/driverlib/lib/gcc/m4f/msp432e4_driverlib.a(gpio.o)
 .text.GPIOIntRegister
                0x00000000       0x28 C:/ti/simplelink_msp432e4_sdk_4_20_00_12/source\ti/devices/msp432e4/driverlib/lib/gcc/m4f/msp432e4_driverlib.a(gpio.o)
 .text.GPIOIntUnregister
                0x00000000       0x24 C:/ti/simplelink_msp432e4_sdk_4_20_00_12/source\ti/devices/msp432e4/driverlib/lib/gcc/m4f/msp432e4_driverlib.a(gpio.o)
 .text.GPIOIntRegisterPin
                0x00000000       0x36 C:/ti/simplelink_msp432e4_sdk_4_20_00_12/source\ti/devices/msp432e4/driverlib/lib/gcc/m4f/msp432e4_driverlib.a(gpio.o)
 .text.GPIOIntUnregisterPin
                0x00000000       0x32 C:/ti/simplelink_msp432e4_sdk_4_20_00_12/source\ti/devices/msp432e4/driverlib/lib/gcc/m4f/msp432e4_driverlib.a(gpio.o)
 .text.GPIOPinRead
                0x00000000       0x24 C:/ti/simplelink_msp432e4_sdk_4_20_00_12/source\ti/devices/msp432e4/driverlib/lib/gcc/m4f/msp432e4_driverlib.a(gpio.o)
 .text.GPIOPinTypeADC
                0x00000000       0x2c C:/ti/simplelink_msp432e4_sdk_4_20_00_12/source\ti/devices/msp432e4/driverlib/lib/gcc/m4f/msp432e4_driverlib.a(gpio.o)
 .text.GPIOPinTypeCAN
                0x00000000       0x2c C:/ti/simplelink_msp432e4_sdk_4_20_00_12/source\ti/devices/msp432e4/driverlib/lib/gcc/m4f/msp432e4_driverlib.a(gpio.o)
 .text.GPIOPinTypeComparator
                0x00000000       0x2c C:/ti/simplelink_msp432e4_sdk_4_20_00_12/source\ti/devices/msp432e4/driverlib/lib/gcc/m4f/msp432e4_driverlib.a(gpio.o)
 .text.GPIOPinTypeComparatorOutput
                0x00000000       0x2c C:/ti/simplelink_msp432e4_sdk_4_20_00_12/source\ti/devices/msp432e4/driverlib/lib/gcc/m4f/msp432e4_driverlib.a(gpio.o)
 .text.GPIOPinTypeDIVSCLK
                0x00000000       0x2c C:/ti/simplelink_msp432e4_sdk_4_20_00_12/source\ti/devices/msp432e4/driverlib/lib/gcc/m4f/msp432e4_driverlib.a(gpio.o)
 .text.GPIOPinTypeEPI
                0x00000000       0x2c C:/ti/simplelink_msp432e4_sdk_4_20_00_12/source\ti/devices/msp432e4/driverlib/lib/gcc/m4f/msp432e4_driverlib.a(gpio.o)
 .text.GPIOPinTypeEthernetLED
                0x00000000       0x2c C:/ti/simplelink_msp432e4_sdk_4_20_00_12/source\ti/devices/msp432e4/driverlib/lib/gcc/m4f/msp432e4_driverlib.a(gpio.o)
 .text.GPIOPinTypeEthernetMII
                0x00000000       0x2c C:/ti/simplelink_msp432e4_sdk_4_20_00_12/source\ti/devices/msp432e4/driverlib/lib/gcc/m4f/msp432e4_driverlib.a(gpio.o)
 .text.GPIOPinTypeGPIOInput
                0x00000000       0x2c C:/ti/simplelink_msp432e4_sdk_4_20_00_12/source\ti/devices/msp432e4/driverlib/lib/gcc/m4f/msp432e4_driverlib.a(gpio.o)
 .text.GPIOPinTypeGPIOOutput
                0x00000000       0x2c C:/ti/simplelink_msp432e4_sdk_4_20_00_12/source\ti/devices/msp432e4/driverlib/lib/gcc/m4f/msp432e4_driverlib.a(gpio.o)
 .text.GPIOPinTypeGPIOOutputOD
                0x00000000       0x2c C:/ti/simplelink_msp432e4_sdk_4_20_00_12/source\ti/devices/msp432e4/driverlib/lib/gcc/m4f/msp432e4_driverlib.a(gpio.o)
 .text.GPIOPinTypeHibernateRTCCLK
                0x00000000       0x2c C:/ti/simplelink_msp432e4_sdk_4_20_00_12/source\ti/devices/msp432e4/driverlib/lib/gcc/m4f/msp432e4_driverlib.a(gpio.o)
 .text.GPIOPinTypeLCD
                0x00000000       0x2c C:/ti/simplelink_msp432e4_sdk_4_20_00_12/source\ti/devices/msp432e4/driverlib/lib/gcc/m4f/msp432e4_driverlib.a(gpio.o)
 .text.GPIOPinTypeOneWire
                0x00000000       0x2c C:/ti/simplelink_msp432e4_sdk_4_20_00_12/source\ti/devices/msp432e4/driverlib/lib/gcc/m4f/msp432e4_driverlib.a(gpio.o)
 .text.GPIOPinTypePWM
                0x00000000       0x2c C:/ti/simplelink_msp432e4_sdk_4_20_00_12/source\ti/devices/msp432e4/driverlib/lib/gcc/m4f/msp432e4_driverlib.a(gpio.o)
 .text.GPIOPinTypeQEI
                0x00000000       0x2c C:/ti/simplelink_msp432e4_sdk_4_20_00_12/source\ti/devices/msp432e4/driverlib/lib/gcc/m4f/msp432e4_driverlib.a(gpio.o)
 .text.GPIOPinTypeSSI
                0x00000000       0x2c C:/ti/simplelink_msp432e4_sdk_4_20_00_12/source\ti/devices/msp432e4/driverlib/lib/gcc/m4f/msp432e4_driverlib.a(gpio.o)
 .text.GPIOPinTypeTimer
                0x00000000       0x2c C:/ti/simplelink_msp432e4_sdk_4_20_00_12/source\ti/devices/msp432e4/driverlib/lib/gcc/m4f/msp432e4_driverlib.a(gpio.o)
 .text.GPIOPinTypeTrace
                0x00000000       0x2c C:/ti/simplelink_msp432e4_sdk_4_20_00_12/source\ti/devices/msp432e4/driverlib/lib/gcc/m4f/msp432e4_driverlib.a(gpio.o)
 .text.GPIOPinTypeUSBAnalog
                0x00000000       0x2c C:/ti/simplelink_msp432e4_sdk_4_20_00_12/source\ti/devices/msp432e4/driverlib/lib/gcc/m4f/msp432e4_driverlib.a(gpio.o)
 .text.GPIOPinTypeUSBDigital
                0x00000000       0x2c C:/ti/simplelink_msp432e4_sdk_4_20_00_12/source\ti/devices/msp432e4/driverlib/lib/gcc/m4f/msp432e4_driverlib.a(gpio.o)
 .text.GPIOPinTypeWakeHigh
                0x00000000       0x2e C:/ti/simplelink_msp432e4_sdk_4_20_00_12/source\ti/devices/msp432e4/driverlib/lib/gcc/m4f/msp432e4_driverlib.a(gpio.o)
 .text.GPIOPinTypeWakeLow
                0x00000000       0x2e C:/ti/simplelink_msp432e4_sdk_4_20_00_12/source\ti/devices/msp432e4/driverlib/lib/gcc/m4f/msp432e4_driverlib.a(gpio.o)
 .text.GPIOPinWakeStatus
                0x00000000       0x1c C:/ti/simplelink_msp432e4_sdk_4_20_00_12/source\ti/devices/msp432e4/driverlib/lib/gcc/m4f/msp432e4_driverlib.a(gpio.o)
 .text.GPIODMATriggerEnable
                0x00000000       0x32 C:/ti/simplelink_msp432e4_sdk_4_20_00_12/source\ti/devices/msp432e4/driverlib/lib/gcc/m4f/msp432e4_driverlib.a(gpio.o)
 .text.GPIODMATriggerDisable
                0x00000000       0x3a C:/ti/simplelink_msp432e4_sdk_4_20_00_12/source\ti/devices/msp432e4/driverlib/lib/gcc/m4f/msp432e4_driverlib.a(gpio.o)
 .text.GPIOADCTriggerEnable
                0x00000000       0x32 C:/ti/simplelink_msp432e4_sdk_4_20_00_12/source\ti/devices/msp432e4/driverlib/lib/gcc/m4f/msp432e4_driverlib.a(gpio.o)
 .text.GPIOADCTriggerDisable
                0x00000000       0x3a C:/ti/simplelink_msp432e4_sdk_4_20_00_12/source\ti/devices/msp432e4/driverlib/lib/gcc/m4f/msp432e4_driverlib.a(gpio.o)
 .text          0x00000000        0x0 C:/ti/simplelink_msp432e4_sdk_4_20_00_12/source\ti/devices/msp432e4/driverlib/lib/gcc/m4f/msp432e4_driverlib.a(i2c.o)
 .data          0x00000000        0x0 C:/ti/simplelink_msp432e4_sdk_4_20_00_12/source\ti/devices/msp432e4/driverlib/lib/gcc/m4f/msp432e4_driverlib.a(i2c.o)
 .bss           0x00000000        0x0 C:/ti/simplelink_msp432e4_sdk_4_20_00_12/source\ti/devices/msp432e4/driverlib/lib/gcc/m4f/msp432e4_driverlib.a(i2c.o)
 .rodata.g_ppui32I2CIntMap
                0x00000000       0x50 C:/ti/simplelink_msp432e4_sdk_4_20_00_12/source\ti/devices/msp432e4/driverlib/lib/gcc/m4f/msp432e4_driverlib.a(i2c.o)
 .rodata.g_i8I2CIntMapRows
                0x00000000        0x4 C:/ti/simplelink_msp432e4_sdk_4_20_00_12/source\ti/devices/msp432e4/driverlib/lib/gcc/m4f/msp432e4_driverlib.a(i2c.o)
 .text._I2CIntNumberGet
                0x00000000       0x54 C:/ti/simplelink_msp432e4_sdk_4_20_00_12/source\ti/devices/msp432e4/driverlib/lib/gcc/m4f/msp432e4_driverlib.a(i2c.o)
 .text.I2CSlaveInit
                0x00000000       0x26 C:/ti/simplelink_msp432e4_sdk_4_20_00_12/source\ti/devices/msp432e4/driverlib/lib/gcc/m4f/msp432e4_driverlib.a(i2c.o)
 .text.I2CSlaveAddressSet
                0x00000000       0x48 C:/ti/simplelink_msp432e4_sdk_4_20_00_12/source\ti/devices/msp432e4/driverlib/lib/gcc/m4f/msp432e4_driverlib.a(i2c.o)
 .text.I2CSlaveEnable
                0x00000000       0x30 C:/ti/simplelink_msp432e4_sdk_4_20_00_12/source\ti/devices/msp432e4/driverlib/lib/gcc/m4f/msp432e4_driverlib.a(i2c.o)
 .text.I2CSlaveDisable
                0x00000000       0x30 C:/ti/simplelink_msp432e4_sdk_4_20_00_12/source\ti/devices/msp432e4/driverlib/lib/gcc/m4f/msp432e4_driverlib.a(i2c.o)
 .text.I2CIntRegister
                0x00000000       0x28 C:/ti/simplelink_msp432e4_sdk_4_20_00_12/source\ti/devices/msp432e4/driverlib/lib/gcc/m4f/msp432e4_driverlib.a(i2c.o)
 .text.I2CIntUnregister
                0x00000000       0x24 C:/ti/simplelink_msp432e4_sdk_4_20_00_12/source\ti/devices/msp432e4/driverlib/lib/gcc/m4f/msp432e4_driverlib.a(i2c.o)
 .text.I2CMasterIntEnable
                0x00000000       0x1e C:/ti/simplelink_msp432e4_sdk_4_20_00_12/source\ti/devices/msp432e4/driverlib/lib/gcc/m4f/msp432e4_driverlib.a(i2c.o)
 .text.I2CSlaveIntEnable
                0x00000000       0x28 C:/ti/simplelink_msp432e4_sdk_4_20_00_12/source\ti/devices/msp432e4/driverlib/lib/gcc/m4f/msp432e4_driverlib.a(i2c.o)
 .text.I2CSlaveIntEnableEx
                0x00000000       0x2c C:/ti/simplelink_msp432e4_sdk_4_20_00_12/source\ti/devices/msp432e4/driverlib/lib/gcc/m4f/msp432e4_driverlib.a(i2c.o)
 .text.I2CMasterIntDisable
                0x00000000       0x1e C:/ti/simplelink_msp432e4_sdk_4_20_00_12/source\ti/devices/msp432e4/driverlib/lib/gcc/m4f/msp432e4_driverlib.a(i2c.o)
 .text.I2CSlaveIntDisable
                0x00000000       0x28 C:/ti/simplelink_msp432e4_sdk_4_20_00_12/source\ti/devices/msp432e4/driverlib/lib/gcc/m4f/msp432e4_driverlib.a(i2c.o)
 .text.I2CSlaveIntDisableEx
                0x00000000       0x2c C:/ti/simplelink_msp432e4_sdk_4_20_00_12/source\ti/devices/msp432e4/driverlib/lib/gcc/m4f/msp432e4_driverlib.a(i2c.o)
 .text.I2CMasterIntStatus
                0x00000000       0x40 C:/ti/simplelink_msp432e4_sdk_4_20_00_12/source\ti/devices/msp432e4/driverlib/lib/gcc/m4f/msp432e4_driverlib.a(i2c.o)
 .text.I2CSlaveIntStatus
                0x00000000       0x44 C:/ti/simplelink_msp432e4_sdk_4_20_00_12/source\ti/devices/msp432e4/driverlib/lib/gcc/m4f/msp432e4_driverlib.a(i2c.o)
 .text.I2CSlaveIntStatusEx
                0x00000000       0x30 C:/ti/simplelink_msp432e4_sdk_4_20_00_12/source\ti/devices/msp432e4/driverlib/lib/gcc/m4f/msp432e4_driverlib.a(i2c.o)
 .text.I2CMasterIntClear
                0x00000000       0x28 C:/ti/simplelink_msp432e4_sdk_4_20_00_12/source\ti/devices/msp432e4/driverlib/lib/gcc/m4f/msp432e4_driverlib.a(i2c.o)
 .text.I2CSlaveIntClear
                0x00000000       0x20 C:/ti/simplelink_msp432e4_sdk_4_20_00_12/source\ti/devices/msp432e4/driverlib/lib/gcc/m4f/msp432e4_driverlib.a(i2c.o)
 .text.I2CSlaveIntClearEx
                0x00000000       0x22 C:/ti/simplelink_msp432e4_sdk_4_20_00_12/source\ti/devices/msp432e4/driverlib/lib/gcc/m4f/msp432e4_driverlib.a(i2c.o)
 .text.I2CMasterLineStateGet
                0x00000000       0x1a C:/ti/simplelink_msp432e4_sdk_4_20_00_12/source\ti/devices/msp432e4/driverlib/lib/gcc/m4f/msp432e4_driverlib.a(i2c.o)
 .text.I2CMasterBusy
                0x00000000       0x28 C:/ti/simplelink_msp432e4_sdk_4_20_00_12/source\ti/devices/msp432e4/driverlib/lib/gcc/m4f/msp432e4_driverlib.a(i2c.o)
 .text.I2CMasterErr
                0x00000000       0x3e C:/ti/simplelink_msp432e4_sdk_4_20_00_12/source\ti/devices/msp432e4/driverlib/lib/gcc/m4f/msp432e4_driverlib.a(i2c.o)
 .text.I2CMasterDataPut
                0x00000000       0x22 C:/ti/simplelink_msp432e4_sdk_4_20_00_12/source\ti/devices/msp432e4/driverlib/lib/gcc/m4f/msp432e4_driverlib.a(i2c.o)
 .text.I2CMasterDataGet
                0x00000000       0x1a C:/ti/simplelink_msp432e4_sdk_4_20_00_12/source\ti/devices/msp432e4/driverlib/lib/gcc/m4f/msp432e4_driverlib.a(i2c.o)
 .text.I2CMasterTimeoutSet
                0x00000000       0x20 C:/ti/simplelink_msp432e4_sdk_4_20_00_12/source\ti/devices/msp432e4/driverlib/lib/gcc/m4f/msp432e4_driverlib.a(i2c.o)
 .text.I2CSlaveACKOverride
                0x00000000       0x48 C:/ti/simplelink_msp432e4_sdk_4_20_00_12/source\ti/devices/msp432e4/driverlib/lib/gcc/m4f/msp432e4_driverlib.a(i2c.o)
 .text.I2CSlaveACKValueSet
                0x00000000       0x48 C:/ti/simplelink_msp432e4_sdk_4_20_00_12/source\ti/devices/msp432e4/driverlib/lib/gcc/m4f/msp432e4_driverlib.a(i2c.o)
 .text.I2CSlaveStatus
                0x00000000       0x1c C:/ti/simplelink_msp432e4_sdk_4_20_00_12/source\ti/devices/msp432e4/driverlib/lib/gcc/m4f/msp432e4_driverlib.a(i2c.o)
 .text.I2CSlaveDataPut
                0x00000000       0x24 C:/ti/simplelink_msp432e4_sdk_4_20_00_12/source\ti/devices/msp432e4/driverlib/lib/gcc/m4f/msp432e4_driverlib.a(i2c.o)
 .text.I2CSlaveDataGet
                0x00000000       0x1c C:/ti/simplelink_msp432e4_sdk_4_20_00_12/source\ti/devices/msp432e4/driverlib/lib/gcc/m4f/msp432e4_driverlib.a(i2c.o)
 .text.I2CFIFODataPut
                0x00000000       0x36 C:/ti/simplelink_msp432e4_sdk_4_20_00_12/source\ti/devices/msp432e4/driverlib/lib/gcc/m4f/msp432e4_driverlib.a(i2c.o)
 .text.I2CFIFODataGet
                0x00000000       0x2e C:/ti/simplelink_msp432e4_sdk_4_20_00_12/source\ti/devices/msp432e4/driverlib/lib/gcc/m4f/msp432e4_driverlib.a(i2c.o)
 .text.I2CMasterBurstCountGet
                0x00000000       0x1a C:/ti/simplelink_msp432e4_sdk_4_20_00_12/source\ti/devices/msp432e4/driverlib/lib/gcc/m4f/msp432e4_driverlib.a(i2c.o)
 .text.I2CMasterGlitchFilterConfigSet
                0x00000000       0x28 C:/ti/simplelink_msp432e4_sdk_4_20_00_12/source\ti/devices/msp432e4/driverlib/lib/gcc/m4f/msp432e4_driverlib.a(i2c.o)
 .text.I2CSlaveFIFOEnable
                0x00000000       0x26 C:/ti/simplelink_msp432e4_sdk_4_20_00_12/source\ti/devices/msp432e4/driverlib/lib/gcc/m4f/msp432e4_driverlib.a(i2c.o)
 .text.I2CSlaveFIFODisable
                0x00000000       0x20 C:/ti/simplelink_msp432e4_sdk_4_20_00_12/source\ti/devices/msp432e4/driverlib/lib/gcc/m4f/msp432e4_driverlib.a(i2c.o)
 .text.I2CLoopbackEnable
                0x00000000       0x24 C:/ti/simplelink_msp432e4_sdk_4_20_00_12/source\ti/devices/msp432e4/driverlib/lib/gcc/m4f/msp432e4_driverlib.a(i2c.o)
 .text          0x00000000        0x0 C:/ti/simplelink_msp432e4_sdk_4_20_00_12/source\ti/devices/msp432e4/driverlib/lib/gcc/m4f/msp432e4_driverlib.a(interrupt.o)
 .data          0x00000000        0x0 C:/ti/simplelink_msp432e4_sdk_4_20_00_12/source\ti/devices/msp432e4/driverlib/lib/gcc/m4f/msp432e4_driverlib.a(interrupt.o)
 .bss           0x00000000        0x0 C:/ti/simplelink_msp432e4_sdk_4_20_00_12/source\ti/devices/msp432e4/driverlib/lib/gcc/m4f/msp432e4_driverlib.a(interrupt.o)
 .rodata.g_pui32Priority
                0x00000000       0x20 C:/ti/simplelink_msp432e4_sdk_4_20_00_12/source\ti/devices/msp432e4/driverlib/lib/gcc/m4f/msp432e4_driverlib.a(interrupt.o)
 .rodata.g_pui32PendRegs
                0x00000000       0x14 C:/ti/simplelink_msp432e4_sdk_4_20_00_12/source\ti/devices/msp432e4/driverlib/lib/gcc/m4f/msp432e4_driverlib.a(interrupt.o)
 .rodata.g_pui32UnpendRegs
                0x00000000       0x14 C:/ti/simplelink_msp432e4_sdk_4_20_00_12/source\ti/devices/msp432e4/driverlib/lib/gcc/m4f/msp432e4_driverlib.a(interrupt.o)
 .text.IntMasterEnable
                0x00000000       0x18 C:/ti/simplelink_msp432e4_sdk_4_20_00_12/source\ti/devices/msp432e4/driverlib/lib/gcc/m4f/msp432e4_driverlib.a(interrupt.o)
 .text.IntMasterDisable
                0x00000000       0x18 C:/ti/simplelink_msp432e4_sdk_4_20_00_12/source\ti/devices/msp432e4/driverlib/lib/gcc/m4f/msp432e4_driverlib.a(interrupt.o)
 .text.IntPriorityGroupingSet
                0x00000000       0x30 C:/ti/simplelink_msp432e4_sdk_4_20_00_12/source\ti/devices/msp432e4/driverlib/lib/gcc/m4f/msp432e4_driverlib.a(interrupt.o)
 .text.IntPriorityGroupingGet
                0x00000000       0x4c C:/ti/simplelink_msp432e4_sdk_4_20_00_12/source\ti/devices/msp432e4/driverlib/lib/gcc/m4f/msp432e4_driverlib.a(interrupt.o)
 .text.IntPriorityGet
                0x00000000       0x34 C:/ti/simplelink_msp432e4_sdk_4_20_00_12/source\ti/devices/msp432e4/driverlib/lib/gcc/m4f/msp432e4_driverlib.a(interrupt.o)
 .text.IntIsEnabled
                0x00000000       0x94 C:/ti/simplelink_msp432e4_sdk_4_20_00_12/source\ti/devices/msp432e4/driverlib/lib/gcc/m4f/msp432e4_driverlib.a(interrupt.o)
 .text.IntPendSet
                0x00000000       0x7c C:/ti/simplelink_msp432e4_sdk_4_20_00_12/source\ti/devices/msp432e4/driverlib/lib/gcc/m4f/msp432e4_driverlib.a(interrupt.o)
 .text.IntPendClear
                0x00000000       0x68 C:/ti/simplelink_msp432e4_sdk_4_20_00_12/source\ti/devices/msp432e4/driverlib/lib/gcc/m4f/msp432e4_driverlib.a(interrupt.o)
 .text.IntPriorityMaskSet
                0x00000000       0x16 C:/ti/simplelink_msp432e4_sdk_4_20_00_12/source\ti/devices/msp432e4/driverlib/lib/gcc/m4f/msp432e4_driverlib.a(interrupt.o)
 .text.IntPriorityMaskGet
                0x00000000        0xe C:/ti/simplelink_msp432e4_sdk_4_20_00_12/source\ti/devices/msp432e4/driverlib/lib/gcc/m4f/msp432e4_driverlib.a(interrupt.o)
 .text.IntTrigger
                0x00000000       0x20 C:/ti/simplelink_msp432e4_sdk_4_20_00_12/source\ti/devices/msp432e4/driverlib/lib/gcc/m4f/msp432e4_driverlib.a(interrupt.o)
 .text          0x00000000        0x0 C:/ti/simplelink_msp432e4_sdk_4_20_00_12/source\ti/devices/msp432e4/driverlib/lib/gcc/m4f/msp432e4_driverlib.a(sysctl.o)
 .data          0x00000000        0x0 C:/ti/simplelink_msp432e4_sdk_4_20_00_12/source\ti/devices/msp432e4/driverlib/lib/gcc/m4f/msp432e4_driverlib.a(sysctl.o)
 .bss           0x00000000        0x0 C:/ti/simplelink_msp432e4_sdk_4_20_00_12/source\ti/devices/msp432e4/driverlib/lib/gcc/m4f/msp432e4_driverlib.a(sysctl.o)
 .text.SysCtlSRAMSizeGet
                0x00000000       0x1c C:/ti/simplelink_msp432e4_sdk_4_20_00_12/source\ti/devices/msp432e4/driverlib/lib/gcc/m4f/msp432e4_driverlib.a(sysctl.o)
 .text.SysCtlFlashSizeGet
                0x00000000       0x1c C:/ti/simplelink_msp432e4_sdk_4_20_00_12/source\ti/devices/msp432e4/driverlib/lib/gcc/m4f/msp432e4_driverlib.a(sysctl.o)
 .text.SysCtlFlashSectorSizeGet
                0x00000000       0x24 C:/ti/simplelink_msp432e4_sdk_4_20_00_12/source\ti/devices/msp432e4/driverlib/lib/gcc/m4f/msp432e4_driverlib.a(sysctl.o)
 .text.SysCtlPeripheralDeepSleepEnable
                0x00000000       0x50 C:/ti/simplelink_msp432e4_sdk_4_20_00_12/source\ti/devices/msp432e4/driverlib/lib/gcc/m4f/msp432e4_driverlib.a(sysctl.o)
 .text.SysCtlPeripheralDeepSleepDisable
                0x00000000       0x50 C:/ti/simplelink_msp432e4_sdk_4_20_00_12/source\ti/devices/msp432e4/driverlib/lib/gcc/m4f/msp432e4_driverlib.a(sysctl.o)
 .text.SysCtlIntRegister
                0x00000000       0x1e C:/ti/simplelink_msp432e4_sdk_4_20_00_12/source\ti/devices/msp432e4/driverlib/lib/gcc/m4f/msp432e4_driverlib.a(sysctl.o)
 .text.SysCtlIntUnregister
                0x00000000       0x14 C:/ti/simplelink_msp432e4_sdk_4_20_00_12/source\ti/devices/msp432e4/driverlib/lib/gcc/m4f/msp432e4_driverlib.a(sysctl.o)
 .text.SysCtlIntEnable
                0x00000000       0x24 C:/ti/simplelink_msp432e4_sdk_4_20_00_12/source\ti/devices/msp432e4/driverlib/lib/gcc/m4f/msp432e4_driverlib.a(sysctl.o)
 .text.SysCtlIntDisable
                0x00000000       0x28 C:/ti/simplelink_msp432e4_sdk_4_20_00_12/source\ti/devices/msp432e4/driverlib/lib/gcc/m4f/msp432e4_driverlib.a(sysctl.o)
 .text.SysCtlIntClear
                0x00000000       0x20 C:/ti/simplelink_msp432e4_sdk_4_20_00_12/source\ti/devices/msp432e4/driverlib/lib/gcc/m4f/msp432e4_driverlib.a(sysctl.o)
 .text.SysCtlIntStatus
                0x00000000       0x30 C:/ti/simplelink_msp432e4_sdk_4_20_00_12/source\ti/devices/msp432e4/driverlib/lib/gcc/m4f/msp432e4_driverlib.a(sysctl.o)
 .text.SysCtlLDODeepSleepSet
                0x00000000       0x20 C:/ti/simplelink_msp432e4_sdk_4_20_00_12/source\ti/devices/msp432e4/driverlib/lib/gcc/m4f/msp432e4_driverlib.a(sysctl.o)
 .text.SysCtlLDODeepSleepGet
                0x00000000       0x18 C:/ti/simplelink_msp432e4_sdk_4_20_00_12/source\ti/devices/msp432e4/driverlib/lib/gcc/m4f/msp432e4_driverlib.a(sysctl.o)
 .text.SysCtlSleepPowerSet
                0x00000000       0x20 C:/ti/simplelink_msp432e4_sdk_4_20_00_12/source\ti/devices/msp432e4/driverlib/lib/gcc/m4f/msp432e4_driverlib.a(sysctl.o)
 .text.SysCtlDeepSleepPowerSet
                0x00000000       0x20 C:/ti/simplelink_msp432e4_sdk_4_20_00_12/source\ti/devices/msp432e4/driverlib/lib/gcc/m4f/msp432e4_driverlib.a(sysctl.o)
 .text.SysCtlReset
                0x00000000       0x14 C:/ti/simplelink_msp432e4_sdk_4_20_00_12/source\ti/devices/msp432e4/driverlib/lib/gcc/m4f/msp432e4_driverlib.a(sysctl.o)
 .text.SysCtlSleep
                0x00000000        0xc C:/ti/simplelink_msp432e4_sdk_4_20_00_12/source\ti/devices/msp432e4/driverlib/lib/gcc/m4f/msp432e4_driverlib.a(sysctl.o)
 .text.SysCtlDeepSleep
                0x00000000       0x28 C:/ti/simplelink_msp432e4_sdk_4_20_00_12/source\ti/devices/msp432e4/driverlib/lib/gcc/m4f/msp432e4_driverlib.a(sysctl.o)
 .text.SysCtlResetCauseGet
                0x00000000       0x18 C:/ti/simplelink_msp432e4_sdk_4_20_00_12/source\ti/devices/msp432e4/driverlib/lib/gcc/m4f/msp432e4_driverlib.a(sysctl.o)
 .text.SysCtlResetCauseClear
                0x00000000       0x28 C:/ti/simplelink_msp432e4_sdk_4_20_00_12/source\ti/devices/msp432e4/driverlib/lib/gcc/m4f/msp432e4_driverlib.a(sysctl.o)
 .text.SysCtlDelay
                0x00000000        0xa C:/ti/simplelink_msp432e4_sdk_4_20_00_12/source\ti/devices/msp432e4/driverlib/lib/gcc/m4f/msp432e4_driverlib.a(sysctl.o)
 .text.SysCtlMOSCConfigSet
                0x00000000       0x20 C:/ti/simplelink_msp432e4_sdk_4_20_00_12/source\ti/devices/msp432e4/driverlib/lib/gcc/m4f/msp432e4_driverlib.a(sysctl.o)
 .text.SysCtlPIOSCCalibrate
                0x00000000       0x74 C:/ti/simplelink_msp432e4_sdk_4_20_00_12/source\ti/devices/msp432e4/driverlib/lib/gcc/m4f/msp432e4_driverlib.a(sysctl.o)
 .text.SysCtlResetBehaviorSet
                0x00000000       0x20 C:/ti/simplelink_msp432e4_sdk_4_20_00_12/source\ti/devices/msp432e4/driverlib/lib/gcc/m4f/msp432e4_driverlib.a(sysctl.o)
 .text.SysCtlResetBehaviorGet
                0x00000000       0x18 C:/ti/simplelink_msp432e4_sdk_4_20_00_12/source\ti/devices/msp432e4/driverlib/lib/gcc/m4f/msp432e4_driverlib.a(sysctl.o)
 .text.SysCtlDeepSleepClockConfigSet
                0x00000000       0x7c C:/ti/simplelink_msp432e4_sdk_4_20_00_12/source\ti/devices/msp432e4/driverlib/lib/gcc/m4f/msp432e4_driverlib.a(sysctl.o)
 .text.SysCtlVoltageEventConfig
                0x00000000       0x20 C:/ti/simplelink_msp432e4_sdk_4_20_00_12/source\ti/devices/msp432e4/driverlib/lib/gcc/m4f/msp432e4_driverlib.a(sysctl.o)
 .text.SysCtlVoltageEventStatus
                0x00000000       0x18 C:/ti/simplelink_msp432e4_sdk_4_20_00_12/source\ti/devices/msp432e4/driverlib/lib/gcc/m4f/msp432e4_driverlib.a(sysctl.o)
 .text.SysCtlVoltageEventClear
                0x00000000       0x24 C:/ti/simplelink_msp432e4_sdk_4_20_00_12/source\ti/devices/msp432e4/driverlib/lib/gcc/m4f/msp432e4_driverlib.a(sysctl.o)
 .text.SysCtlVCOGet
                0x00000000       0xb8 C:/ti/simplelink_msp432e4_sdk_4_20_00_12/source\ti/devices/msp432e4/driverlib/lib/gcc/m4f/msp432e4_driverlib.a(sysctl.o)
 .text.SysCtlNMIStatus
                0x00000000       0x18 C:/ti/simplelink_msp432e4_sdk_4_20_00_12/source\ti/devices/msp432e4/driverlib/lib/gcc/m4f/msp432e4_driverlib.a(sysctl.o)
 .text.SysCtlNMIClear
                0x00000000       0x28 C:/ti/simplelink_msp432e4_sdk_4_20_00_12/source\ti/devices/msp432e4/driverlib/lib/gcc/m4f/msp432e4_driverlib.a(sysctl.o)
 .text.SysCtlClockOutConfig
                0x00000000       0x28 C:/ti/simplelink_msp432e4_sdk_4_20_00_12/source\ti/devices/msp432e4/driverlib/lib/gcc/m4f/msp432e4_driverlib.a(sysctl.o)
 .text.SysCtlAltClkConfig
                0x00000000       0x20 C:/ti/simplelink_msp432e4_sdk_4_20_00_12/source\ti/devices/msp432e4/driverlib/lib/gcc/m4f/msp432e4_driverlib.a(sysctl.o)
 .text          0x00000000        0x0 C:/ti/simplelink_msp432e4_sdk_4_20_00_12/source\ti/devices/msp432e4/driverlib/lib/gcc/m4f/msp432e4_driverlib.a(uart.o)
 .data          0x00000000        0x0 C:/ti/simplelink_msp432e4_sdk_4_20_00_12/source\ti/devices/msp432e4/driverlib/lib/gcc/m4f/msp432e4_driverlib.a(uart.o)
 .bss           0x00000000        0x0 C:/ti/simplelink_msp432e4_sdk_4_20_00_12/source\ti/devices/msp432e4/driverlib/lib/gcc/m4f/msp432e4_driverlib.a(uart.o)
 .rodata.g_ppui32UARTIntMap
                0x00000000       0x40 C:/ti/simplelink_msp432e4_sdk_4_20_00_12/source\ti/devices/msp432e4/driverlib/lib/gcc/m4f/msp432e4_driverlib.a(uart.o)
 .rodata.g_ui8UARTIntMapRows
                0x00000000        0x4 C:/ti/simplelink_msp432e4_sdk_4_20_00_12/source\ti/devices/msp432e4/driverlib/lib/gcc/m4f/msp432e4_driverlib.a(uart.o)
 .text._UARTIntNumberGet
                0x00000000       0x54 C:/ti/simplelink_msp432e4_sdk_4_20_00_12/source\ti/devices/msp432e4/driverlib/lib/gcc/m4f/msp432e4_driverlib.a(uart.o)
 .text.UARTParityModeSet
                0x00000000       0x2c C:/ti/simplelink_msp432e4_sdk_4_20_00_12/source\ti/devices/msp432e4/driverlib/lib/gcc/m4f/msp432e4_driverlib.a(uart.o)
 .text.UARTParityModeGet
                0x00000000       0x1e C:/ti/simplelink_msp432e4_sdk_4_20_00_12/source\ti/devices/msp432e4/driverlib/lib/gcc/m4f/msp432e4_driverlib.a(uart.o)
 .text.UARTFIFOLevelGet
                0x00000000       0x34 C:/ti/simplelink_msp432e4_sdk_4_20_00_12/source\ti/devices/msp432e4/driverlib/lib/gcc/m4f/msp432e4_driverlib.a(uart.o)
 .text.UARTConfigGetExpClk
                0x00000000       0x64 C:/ti/simplelink_msp432e4_sdk_4_20_00_12/source\ti/devices/msp432e4/driverlib/lib/gcc/m4f/msp432e4_driverlib.a(uart.o)
 .text.UARTFIFOEnable
                0x00000000       0x24 C:/ti/simplelink_msp432e4_sdk_4_20_00_12/source\ti/devices/msp432e4/driverlib/lib/gcc/m4f/msp432e4_driverlib.a(uart.o)
 .text.UARTFIFODisable
                0x00000000       0x24 C:/ti/simplelink_msp432e4_sdk_4_20_00_12/source\ti/devices/msp432e4/driverlib/lib/gcc/m4f/msp432e4_driverlib.a(uart.o)
 .text.UARTEnableSIR
                0x00000000       0x40 C:/ti/simplelink_msp432e4_sdk_4_20_00_12/source\ti/devices/msp432e4/driverlib/lib/gcc/m4f/msp432e4_driverlib.a(uart.o)
 .text.UARTDisableSIR
                0x00000000       0x24 C:/ti/simplelink_msp432e4_sdk_4_20_00_12/source\ti/devices/msp432e4/driverlib/lib/gcc/m4f/msp432e4_driverlib.a(uart.o)
 .text.UARTSmartCardEnable
                0x00000000       0x46 C:/ti/simplelink_msp432e4_sdk_4_20_00_12/source\ti/devices/msp432e4/driverlib/lib/gcc/m4f/msp432e4_driverlib.a(uart.o)
 .text.UARTSmartCardDisable
                0x00000000       0x24 C:/ti/simplelink_msp432e4_sdk_4_20_00_12/source\ti/devices/msp432e4/driverlib/lib/gcc/m4f/msp432e4_driverlib.a(uart.o)
 .text.UARTModemControlSet
                0x00000000       0x34 C:/ti/simplelink_msp432e4_sdk_4_20_00_12/source\ti/devices/msp432e4/driverlib/lib/gcc/m4f/msp432e4_driverlib.a(uart.o)
 .text.UARTModemControlClear
                0x00000000       0x36 C:/ti/simplelink_msp432e4_sdk_4_20_00_12/source\ti/devices/msp432e4/driverlib/lib/gcc/m4f/msp432e4_driverlib.a(uart.o)
 .text.UARTModemControlGet
                0x00000000       0x1e C:/ti/simplelink_msp432e4_sdk_4_20_00_12/source\ti/devices/msp432e4/driverlib/lib/gcc/m4f/msp432e4_driverlib.a(uart.o)
 .text.UARTModemStatusGet
                0x00000000       0x20 C:/ti/simplelink_msp432e4_sdk_4_20_00_12/source\ti/devices/msp432e4/driverlib/lib/gcc/m4f/msp432e4_driverlib.a(uart.o)
 .text.UARTFlowControlGet
                0x00000000       0x1e C:/ti/simplelink_msp432e4_sdk_4_20_00_12/source\ti/devices/msp432e4/driverlib/lib/gcc/m4f/msp432e4_driverlib.a(uart.o)
 .text.UARTTxIntModeGet
                0x00000000       0x1e C:/ti/simplelink_msp432e4_sdk_4_20_00_12/source\ti/devices/msp432e4/driverlib/lib/gcc/m4f/msp432e4_driverlib.a(uart.o)
 .text.UARTSpaceAvail
                0x00000000       0x28 C:/ti/simplelink_msp432e4_sdk_4_20_00_12/source\ti/devices/msp432e4/driverlib/lib/gcc/m4f/msp432e4_driverlib.a(uart.o)
 .text.UARTBreakCtl
                0x00000000       0x3a C:/ti/simplelink_msp432e4_sdk_4_20_00_12/source\ti/devices/msp432e4/driverlib/lib/gcc/m4f/msp432e4_driverlib.a(uart.o)
 .text.UARTIntRegister
                0x00000000       0x28 C:/ti/simplelink_msp432e4_sdk_4_20_00_12/source\ti/devices/msp432e4/driverlib/lib/gcc/m4f/msp432e4_driverlib.a(uart.o)
 .text.UARTIntUnregister
                0x00000000       0x24 C:/ti/simplelink_msp432e4_sdk_4_20_00_12/source\ti/devices/msp432e4/driverlib/lib/gcc/m4f/msp432e4_driverlib.a(uart.o)
 .text.UARTDMAEnable
                0x00000000       0x28 C:/ti/simplelink_msp432e4_sdk_4_20_00_12/source\ti/devices/msp432e4/driverlib/lib/gcc/m4f/msp432e4_driverlib.a(uart.o)
 .text.UARTDMADisable
                0x00000000       0x28 C:/ti/simplelink_msp432e4_sdk_4_20_00_12/source\ti/devices/msp432e4/driverlib/lib/gcc/m4f/msp432e4_driverlib.a(uart.o)
 .text.UARTClockSourceSet
                0x00000000       0x22 C:/ti/simplelink_msp432e4_sdk_4_20_00_12/source\ti/devices/msp432e4/driverlib/lib/gcc/m4f/msp432e4_driverlib.a(uart.o)
 .text.UARTClockSourceGet
                0x00000000       0x1c C:/ti/simplelink_msp432e4_sdk_4_20_00_12/source\ti/devices/msp432e4/driverlib/lib/gcc/m4f/msp432e4_driverlib.a(uart.o)
 .text.UART9BitEnable
                0x00000000       0x24 C:/ti/simplelink_msp432e4_sdk_4_20_00_12/source\ti/devices/msp432e4/driverlib/lib/gcc/m4f/msp432e4_driverlib.a(uart.o)
 .text.UART9BitDisable
                0x00000000       0x24 C:/ti/simplelink_msp432e4_sdk_4_20_00_12/source\ti/devices/msp432e4/driverlib/lib/gcc/m4f/msp432e4_driverlib.a(uart.o)
 .text.UART9BitAddrSet
                0x00000000       0x30 C:/ti/simplelink_msp432e4_sdk_4_20_00_12/source\ti/devices/msp432e4/driverlib/lib/gcc/m4f/msp432e4_driverlib.a(uart.o)
 .text.UART9BitAddrSend
                0x00000000       0x60 C:/ti/simplelink_msp432e4_sdk_4_20_00_12/source\ti/devices/msp432e4/driverlib/lib/gcc/m4f/msp432e4_driverlib.a(uart.o)
 .text.UARTLoopbackEnable
                0x00000000       0x24 C:/ti/simplelink_msp432e4_sdk_4_20_00_12/source\ti/devices/msp432e4/driverlib/lib/gcc/m4f/msp432e4_driverlib.a(uart.o)
 .text          0x00000000        0x0 C:/ti/simplelink_msp432e4_sdk_4_20_00_12/source\ti/devices/msp432e4/driverlib/lib/gcc/m4f/msp432e4_driverlib.a(cpu.o)
 .data          0x00000000        0x0 C:/ti/simplelink_msp432e4_sdk_4_20_00_12/source\ti/devices/msp432e4/driverlib/lib/gcc/m4f/msp432e4_driverlib.a(cpu.o)
 .bss           0x00000000        0x0 C:/ti/simplelink_msp432e4_sdk_4_20_00_12/source\ti/devices/msp432e4/driverlib/lib/gcc/m4f/msp432e4_driverlib.a(cpu.o)
 .text.CPUcpsid
                0x00000000        0xe C:/ti/simplelink_msp432e4_sdk_4_20_00_12/source\ti/devices/msp432e4/driverlib/lib/gcc/m4f/msp432e4_driverlib.a(cpu.o)
 .text.CPUprimask
                0x00000000        0xc C:/ti/simplelink_msp432e4_sdk_4_20_00_12/source\ti/devices/msp432e4/driverlib/lib/gcc/m4f/msp432e4_driverlib.a(cpu.o)
 .text.CPUcpsie
                0x00000000        0xe C:/ti/simplelink_msp432e4_sdk_4_20_00_12/source\ti/devices/msp432e4/driverlib/lib/gcc/m4f/msp432e4_driverlib.a(cpu.o)
 .text.CPUwfi   0x00000000        0x6 C:/ti/simplelink_msp432e4_sdk_4_20_00_12/source\ti/devices/msp432e4/driverlib/lib/gcc/m4f/msp432e4_driverlib.a(cpu.o)
 .text.CPUbasepriSet
                0x00000000        0x8 C:/ti/simplelink_msp432e4_sdk_4_20_00_12/source\ti/devices/msp432e4/driverlib/lib/gcc/m4f/msp432e4_driverlib.a(cpu.o)
 .text.CPUbasepriGet
                0x00000000        0xc C:/ti/simplelink_msp432e4_sdk_4_20_00_12/source\ti/devices/msp432e4/driverlib/lib/gcc/m4f/msp432e4_driverlib.a(cpu.o)
 .debug_info    0x00000000      0x153 C:/ti/simplelink_msp432e4_sdk_4_20_00_12/source\ti/devices/msp432e4/driverlib/lib/gcc/m4f/msp432e4_driverlib.a(cpu.o)
 .debug_abbrev  0x00000000       0xd9 C:/ti/simplelink_msp432e4_sdk_4_20_00_12/source\ti/devices/msp432e4/driverlib/lib/gcc/m4f/msp432e4_driverlib.a(cpu.o)
 .debug_aranges
                0x00000000       0x48 C:/ti/simplelink_msp432e4_sdk_4_20_00_12/source\ti/devices/msp432e4/driverlib/lib/gcc/m4f/msp432e4_driverlib.a(cpu.o)
 .debug_ranges  0x00000000       0x38 C:/ti/simplelink_msp432e4_sdk_4_20_00_12/source\ti/devices/msp432e4/driverlib/lib/gcc/m4f/msp432e4_driverlib.a(cpu.o)
 .debug_line    0x00000000      0x179 C:/ti/simplelink_msp432e4_sdk_4_20_00_12/source\ti/devices/msp432e4/driverlib/lib/gcc/m4f/msp432e4_driverlib.a(cpu.o)
 .debug_str     0x00000000      0x24b C:/ti/simplelink_msp432e4_sdk_4_20_00_12/source\ti/devices/msp432e4/driverlib/lib/gcc/m4f/msp432e4_driverlib.a(cpu.o)
 .comment       0x00000000       0x7f C:/ti/simplelink_msp432e4_sdk_4_20_00_12/source\ti/devices/msp432e4/driverlib/lib/gcc/m4f/msp432e4_driverlib.a(cpu.o)
 .debug_frame   0x00000000       0x70 C:/ti/simplelink_msp432e4_sdk_4_20_00_12/source\ti/devices/msp432e4/driverlib/lib/gcc/m4f/msp432e4_driverlib.a(cpu.o)
 .ARM.attributes
                0x00000000       0x39 C:/ti/simplelink_msp432e4_sdk_4_20_00_12/source\ti/devices/msp432e4/driverlib/lib/gcc/m4f/msp432e4_driverlib.a(cpu.o)
 .data          0x00000000        0x0 c:/ti/ccs1020/ccs/tools/compiler/gcc-arm-none-eabi-9-2019-q4-major/bin/../lib/gcc/arm-none-eabi/9.2.1/thumb/v7e-m+fp/hard\libgcc.a(_arm_muldf3.o)
 .bss           0x00000000        0x0 c:/ti/ccs1020/ccs/tools/compiler/gcc-arm-none-eabi-9-2019-q4-major/bin/../lib/gcc/arm-none-eabi/9.2.1/thumb/v7e-m+fp/hard\libgcc.a(_arm_muldf3.o)
 .data          0x00000000        0x0 c:/ti/ccs1020/ccs/tools/compiler/gcc-arm-none-eabi-9-2019-q4-major/bin/../lib/gcc/arm-none-eabi/9.2.1/thumb/v7e-m+fp/hard\libgcc.a(_arm_addsubdf3.o)
 .bss           0x00000000        0x0 c:/ti/ccs1020/ccs/tools/compiler/gcc-arm-none-eabi-9-2019-q4-major/bin/../lib/gcc/arm-none-eabi/9.2.1/thumb/v7e-m+fp/hard\libgcc.a(_arm_addsubdf3.o)
 .data          0x00000000        0x0 c:/ti/ccs1020/ccs/tools/compiler/gcc-arm-none-eabi-9-2019-q4-major/bin/../lib/gcc/arm-none-eabi/9.2.1/thumb/v7e-m+fp/hard\libgcc.a(_arm_cmpdf2.o)
 .bss           0x00000000        0x0 c:/ti/ccs1020/ccs/tools/compiler/gcc-arm-none-eabi-9-2019-q4-major/bin/../lib/gcc/arm-none-eabi/9.2.1/thumb/v7e-m+fp/hard\libgcc.a(_arm_cmpdf2.o)
 .data          0x00000000        0x0 c:/ti/ccs1020/ccs/tools/compiler/gcc-arm-none-eabi-9-2019-q4-major/bin/../lib/gcc/arm-none-eabi/9.2.1/thumb/v7e-m+fp/hard\libgcc.a(_arm_fixdfsi.o)
 .bss           0x00000000        0x0 c:/ti/ccs1020/ccs/tools/compiler/gcc-arm-none-eabi-9-2019-q4-major/bin/../lib/gcc/arm-none-eabi/9.2.1/thumb/v7e-m+fp/hard\libgcc.a(_arm_fixdfsi.o)
 .data          0x00000000        0x0 c:/ti/ccs1020/ccs/tools/compiler/gcc-arm-none-eabi-9-2019-q4-major/bin/../lib/gcc/arm-none-eabi/9.2.1/thumb/v7e-m+fp/hard\libgcc.a(_arm_fixunsdfsi.o)
 .bss           0x00000000        0x0 c:/ti/ccs1020/ccs/tools/compiler/gcc-arm-none-eabi-9-2019-q4-major/bin/../lib/gcc/arm-none-eabi/9.2.1/thumb/v7e-m+fp/hard\libgcc.a(_arm_fixunsdfsi.o)
 .text          0x00000000        0x0 c:/ti/ccs1020/ccs/tools/compiler/gcc-arm-none-eabi-9-2019-q4-major/bin/../lib/gcc/arm-none-eabi/9.2.1/../../../../arm-none-eabi/lib/thumb/v7e-m+fp/hard\libc_nano.a(lib_a-errno.o)
 .data          0x00000000        0x0 c:/ti/ccs1020/ccs/tools/compiler/gcc-arm-none-eabi-9-2019-q4-major/bin/../lib/gcc/arm-none-eabi/9.2.1/../../../../arm-none-eabi/lib/thumb/v7e-m+fp/hard\libc_nano.a(lib_a-errno.o)
 .bss           0x00000000        0x0 c:/ti/ccs1020/ccs/tools/compiler/gcc-arm-none-eabi-9-2019-q4-major/bin/../lib/gcc/arm-none-eabi/9.2.1/../../../../arm-none-eabi/lib/thumb/v7e-m+fp/hard\libc_nano.a(lib_a-errno.o)
 .text.__errno  0x00000000        0xc c:/ti/ccs1020/ccs/tools/compiler/gcc-arm-none-eabi-9-2019-q4-major/bin/../lib/gcc/arm-none-eabi/9.2.1/../../../../arm-none-eabi/lib/thumb/v7e-m+fp/hard\libc_nano.a(lib_a-errno.o)
 .debug_frame   0x00000000       0x20 c:/ti/ccs1020/ccs/tools/compiler/gcc-arm-none-eabi-9-2019-q4-major/bin/../lib/gcc/arm-none-eabi/9.2.1/../../../../arm-none-eabi/lib/thumb/v7e-m+fp/hard\libc_nano.a(lib_a-errno.o)
 .ARM.attributes
                0x00000000       0x34 c:/ti/ccs1020/ccs/tools/compiler/gcc-arm-none-eabi-9-2019-q4-major/bin/../lib/gcc/arm-none-eabi/9.2.1/../../../../arm-none-eabi/lib/thumb/v7e-m+fp/hard\libc_nano.a(lib_a-errno.o)
 .text          0x00000000        0x0 c:/ti/ccs1020/ccs/tools/compiler/gcc-arm-none-eabi-9-2019-q4-major/bin/../lib/gcc/arm-none-eabi/9.2.1/../../../../arm-none-eabi/lib/thumb/v7e-m+fp/hard\libc_nano.a(lib_a-findfp.o)
 .data          0x00000000        0x0 c:/ti/ccs1020/ccs/tools/compiler/gcc-arm-none-eabi-9-2019-q4-major/bin/../lib/gcc/arm-none-eabi/9.2.1/../../../../arm-none-eabi/lib/thumb/v7e-m+fp/hard\libc_nano.a(lib_a-findfp.o)
 .bss           0x00000000        0x0 c:/ti/ccs1020/ccs/tools/compiler/gcc-arm-none-eabi-9-2019-q4-major/bin/../lib/gcc/arm-none-eabi/9.2.1/../../../../arm-none-eabi/lib/thumb/v7e-m+fp/hard\libc_nano.a(lib_a-findfp.o)
 .text.std      0x00000000       0x48 c:/ti/ccs1020/ccs/tools/compiler/gcc-arm-none-eabi-9-2019-q4-major/bin/../lib/gcc/arm-none-eabi/9.2.1/../../../../arm-none-eabi/lib/thumb/v7e-m+fp/hard\libc_nano.a(lib_a-findfp.o)
 .text._cleanup_r
                0x00000000        0xc c:/ti/ccs1020/ccs/tools/compiler/gcc-arm-none-eabi-9-2019-q4-major/bin/../lib/gcc/arm-none-eabi/9.2.1/../../../../arm-none-eabi/lib/thumb/v7e-m+fp/hard\libc_nano.a(lib_a-findfp.o)
 .text.__fp_lock
                0x00000000       0x18 c:/ti/ccs1020/ccs/tools/compiler/gcc-arm-none-eabi-9-2019-q4-major/bin/../lib/gcc/arm-none-eabi/9.2.1/../../../../arm-none-eabi/lib/thumb/v7e-m+fp/hard\libc_nano.a(lib_a-findfp.o)
 .text.__fp_unlock
                0x00000000       0x18 c:/ti/ccs1020/ccs/tools/compiler/gcc-arm-none-eabi-9-2019-q4-major/bin/../lib/gcc/arm-none-eabi/9.2.1/../../../../arm-none-eabi/lib/thumb/v7e-m+fp/hard\libc_nano.a(lib_a-findfp.o)
 .text.__sfmoreglue
                0x00000000       0x2c c:/ti/ccs1020/ccs/tools/compiler/gcc-arm-none-eabi-9-2019-q4-major/bin/../lib/gcc/arm-none-eabi/9.2.1/../../../../arm-none-eabi/lib/thumb/v7e-m+fp/hard\libc_nano.a(lib_a-findfp.o)
 .text._cleanup
                0x00000000        0xc c:/ti/ccs1020/ccs/tools/compiler/gcc-arm-none-eabi-9-2019-q4-major/bin/../lib/gcc/arm-none-eabi/9.2.1/../../../../arm-none-eabi/lib/thumb/v7e-m+fp/hard\libc_nano.a(lib_a-findfp.o)
 .text.__sfp_lock_acquire
                0x00000000        0xc c:/ti/ccs1020/ccs/tools/compiler/gcc-arm-none-eabi-9-2019-q4-major/bin/../lib/gcc/arm-none-eabi/9.2.1/../../../../arm-none-eabi/lib/thumb/v7e-m+fp/hard\libc_nano.a(lib_a-findfp.o)
 .text.__sfp_lock_release
                0x00000000        0xc c:/ti/ccs1020/ccs/tools/compiler/gcc-arm-none-eabi-9-2019-q4-major/bin/../lib/gcc/arm-none-eabi/9.2.1/../../../../arm-none-eabi/lib/thumb/v7e-m+fp/hard\libc_nano.a(lib_a-findfp.o)
 .text.__sinit_lock_acquire
                0x00000000        0xc c:/ti/ccs1020/ccs/tools/compiler/gcc-arm-none-eabi-9-2019-q4-major/bin/../lib/gcc/arm-none-eabi/9.2.1/../../../../arm-none-eabi/lib/thumb/v7e-m+fp/hard\libc_nano.a(lib_a-findfp.o)
 .text.__sinit_lock_release
                0x00000000        0xc c:/ti/ccs1020/ccs/tools/compiler/gcc-arm-none-eabi-9-2019-q4-major/bin/../lib/gcc/arm-none-eabi/9.2.1/../../../../arm-none-eabi/lib/thumb/v7e-m+fp/hard\libc_nano.a(lib_a-findfp.o)
 .text.__sinit  0x00000000       0x70 c:/ti/ccs1020/ccs/tools/compiler/gcc-arm-none-eabi-9-2019-q4-major/bin/../lib/gcc/arm-none-eabi/9.2.1/../../../../arm-none-eabi/lib/thumb/v7e-m+fp/hard\libc_nano.a(lib_a-findfp.o)
 .text.__sfp    0x00000000       0x8c c:/ti/ccs1020/ccs/tools/compiler/gcc-arm-none-eabi-9-2019-q4-major/bin/../lib/gcc/arm-none-eabi/9.2.1/../../../../arm-none-eabi/lib/thumb/v7e-m+fp/hard\libc_nano.a(lib_a-findfp.o)
 .text.__fp_lock_all
                0x00000000       0x1c c:/ti/ccs1020/ccs/tools/compiler/gcc-arm-none-eabi-9-2019-q4-major/bin/../lib/gcc/arm-none-eabi/9.2.1/../../../../arm-none-eabi/lib/thumb/v7e-m+fp/hard\libc_nano.a(lib_a-findfp.o)
 .text.__fp_unlock_all
                0x00000000       0x1c c:/ti/ccs1020/ccs/tools/compiler/gcc-arm-none-eabi-9-2019-q4-major/bin/../lib/gcc/arm-none-eabi/9.2.1/../../../../arm-none-eabi/lib/thumb/v7e-m+fp/hard\libc_nano.a(lib_a-findfp.o)
 .text          0x00000000        0x0 c:/ti/ccs1020/ccs/tools/compiler/gcc-arm-none-eabi-9-2019-q4-major/bin/../lib/gcc/arm-none-eabi/9.2.1/../../../../arm-none-eabi/lib/thumb/v7e-m+fp/hard\libc_nano.a(lib_a-fwalk.o)
 .data          0x00000000        0x0 c:/ti/ccs1020/ccs/tools/compiler/gcc-arm-none-eabi-9-2019-q4-major/bin/../lib/gcc/arm-none-eabi/9.2.1/../../../../arm-none-eabi/lib/thumb/v7e-m+fp/hard\libc_nano.a(lib_a-fwalk.o)
 .bss           0x00000000        0x0 c:/ti/ccs1020/ccs/tools/compiler/gcc-arm-none-eabi-9-2019-q4-major/bin/../lib/gcc/arm-none-eabi/9.2.1/../../../../arm-none-eabi/lib/thumb/v7e-m+fp/hard\libc_nano.a(lib_a-fwalk.o)
 .text._fwalk   0x00000000       0x3a c:/ti/ccs1020/ccs/tools/compiler/gcc-arm-none-eabi-9-2019-q4-major/bin/../lib/gcc/arm-none-eabi/9.2.1/../../../../arm-none-eabi/lib/thumb/v7e-m+fp/hard\libc_nano.a(lib_a-fwalk.o)
 .text._fwalk_reent
                0x00000000       0x3e c:/ti/ccs1020/ccs/tools/compiler/gcc-arm-none-eabi-9-2019-q4-major/bin/../lib/gcc/arm-none-eabi/9.2.1/../../../../arm-none-eabi/lib/thumb/v7e-m+fp/hard\libc_nano.a(lib_a-fwalk.o)
 .debug_frame   0x00000000       0x54 c:/ti/ccs1020/ccs/tools/compiler/gcc-arm-none-eabi-9-2019-q4-major/bin/../lib/gcc/arm-none-eabi/9.2.1/../../../../arm-none-eabi/lib/thumb/v7e-m+fp/hard\libc_nano.a(lib_a-fwalk.o)
 .ARM.attributes
                0x00000000       0x34 c:/ti/ccs1020/ccs/tools/compiler/gcc-arm-none-eabi-9-2019-q4-major/bin/../lib/gcc/arm-none-eabi/9.2.1/../../../../arm-none-eabi/lib/thumb/v7e-m+fp/hard\libc_nano.a(lib_a-fwalk.o)
 .text          0x00000000        0x0 c:/ti/ccs1020/ccs/tools/compiler/gcc-arm-none-eabi-9-2019-q4-major/bin/../lib/gcc/arm-none-eabi/9.2.1/../../../../arm-none-eabi/lib/thumb/v7e-m+fp/hard\libc_nano.a(lib_a-impure.o)
 .data          0x00000000        0x0 c:/ti/ccs1020/ccs/tools/compiler/gcc-arm-none-eabi-9-2019-q4-major/bin/../lib/gcc/arm-none-eabi/9.2.1/../../../../arm-none-eabi/lib/thumb/v7e-m+fp/hard\libc_nano.a(lib_a-impure.o)
 .bss           0x00000000        0x0 c:/ti/ccs1020/ccs/tools/compiler/gcc-arm-none-eabi-9-2019-q4-major/bin/../lib/gcc/arm-none-eabi/9.2.1/../../../../arm-none-eabi/lib/thumb/v7e-m+fp/hard\libc_nano.a(lib_a-impure.o)
 .rodata._global_impure_ptr
                0x00000000        0x4 c:/ti/ccs1020/ccs/tools/compiler/gcc-arm-none-eabi-9-2019-q4-major/bin/../lib/gcc/arm-none-eabi/9.2.1/../../../../arm-none-eabi/lib/thumb/v7e-m+fp/hard\libc_nano.a(lib_a-impure.o)
 .text          0x00000000        0x0 c:/ti/ccs1020/ccs/tools/compiler/gcc-arm-none-eabi-9-2019-q4-major/bin/../lib/gcc/arm-none-eabi/9.2.1/../../../../arm-none-eabi/lib/thumb/v7e-m+fp/hard\libc_nano.a(lib_a-lock.o)
 .data          0x00000000        0x0 c:/ti/ccs1020/ccs/tools/compiler/gcc-arm-none-eabi-9-2019-q4-major/bin/../lib/gcc/arm-none-eabi/9.2.1/../../../../arm-none-eabi/lib/thumb/v7e-m+fp/hard\libc_nano.a(lib_a-lock.o)
 .bss           0x00000000        0x0 c:/ti/ccs1020/ccs/tools/compiler/gcc-arm-none-eabi-9-2019-q4-major/bin/../lib/gcc/arm-none-eabi/9.2.1/../../../../arm-none-eabi/lib/thumb/v7e-m+fp/hard\libc_nano.a(lib_a-lock.o)
 .text.__retarget_lock_init
                0x00000000        0x2 c:/ti/ccs1020/ccs/tools/compiler/gcc-arm-none-eabi-9-2019-q4-major/bin/../lib/gcc/arm-none-eabi/9.2.1/../../../../arm-none-eabi/lib/thumb/v7e-m+fp/hard\libc_nano.a(lib_a-lock.o)
 .text.__retarget_lock_init_recursive
                0x00000000        0x2 c:/ti/ccs1020/ccs/tools/compiler/gcc-arm-none-eabi-9-2019-q4-major/bin/../lib/gcc/arm-none-eabi/9.2.1/../../../../arm-none-eabi/lib/thumb/v7e-m+fp/hard\libc_nano.a(lib_a-lock.o)
 .text.__retarget_lock_close
                0x00000000        0x2 c:/ti/ccs1020/ccs/tools/compiler/gcc-arm-none-eabi-9-2019-q4-major/bin/../lib/gcc/arm-none-eabi/9.2.1/../../../../arm-none-eabi/lib/thumb/v7e-m+fp/hard\libc_nano.a(lib_a-lock.o)
 .text.__retarget_lock_close_recursive
                0x00000000        0x2 c:/ti/ccs1020/ccs/tools/compiler/gcc-arm-none-eabi-9-2019-q4-major/bin/../lib/gcc/arm-none-eabi/9.2.1/../../../../arm-none-eabi/lib/thumb/v7e-m+fp/hard\libc_nano.a(lib_a-lock.o)
 .text.__retarget_lock_acquire
                0x00000000        0x2 c:/ti/ccs1020/ccs/tools/compiler/gcc-arm-none-eabi-9-2019-q4-major/bin/../lib/gcc/arm-none-eabi/9.2.1/../../../../arm-none-eabi/lib/thumb/v7e-m+fp/hard\libc_nano.a(lib_a-lock.o)
 .text.__retarget_lock_try_acquire
                0x00000000        0x4 c:/ti/ccs1020/ccs/tools/compiler/gcc-arm-none-eabi-9-2019-q4-major/bin/../lib/gcc/arm-none-eabi/9.2.1/../../../../arm-none-eabi/lib/thumb/v7e-m+fp/hard\libc_nano.a(lib_a-lock.o)
 .text.__retarget_lock_try_acquire_recursive
                0x00000000        0x4 c:/ti/ccs1020/ccs/tools/compiler/gcc-arm-none-eabi-9-2019-q4-major/bin/../lib/gcc/arm-none-eabi/9.2.1/../../../../arm-none-eabi/lib/thumb/v7e-m+fp/hard\libc_nano.a(lib_a-lock.o)
 .text.__retarget_lock_release
                0x00000000        0x2 c:/ti/ccs1020/ccs/tools/compiler/gcc-arm-none-eabi-9-2019-q4-major/bin/../lib/gcc/arm-none-eabi/9.2.1/../../../../arm-none-eabi/lib/thumb/v7e-m+fp/hard\libc_nano.a(lib_a-lock.o)
 .text          0x00000000        0x0 c:/ti/ccs1020/ccs/tools/compiler/gcc-arm-none-eabi-9-2019-q4-major/bin/../lib/gcc/arm-none-eabi/9.2.1/../../../../arm-none-eabi/lib/thumb/v7e-m+fp/hard\libc_nano.a(lib_a-memcpy-stub.o)
 .data          0x00000000        0x0 c:/ti/ccs1020/ccs/tools/compiler/gcc-arm-none-eabi-9-2019-q4-major/bin/../lib/gcc/arm-none-eabi/9.2.1/../../../../arm-none-eabi/lib/thumb/v7e-m+fp/hard\libc_nano.a(lib_a-memcpy-stub.o)
 .bss           0x00000000        0x0 c:/ti/ccs1020/ccs/tools/compiler/gcc-arm-none-eabi-9-2019-q4-major/bin/../lib/gcc/arm-none-eabi/9.2.1/../../../../arm-none-eabi/lib/thumb/v7e-m+fp/hard\libc_nano.a(lib_a-memcpy-stub.o)
 .text          0x00000000        0x0 c:/ti/ccs1020/ccs/tools/compiler/gcc-arm-none-eabi-9-2019-q4-major/bin/../lib/gcc/arm-none-eabi/9.2.1/../../../../arm-none-eabi/lib/thumb/v7e-m+fp/hard\libc_nano.a(lib_a-memset.o)
 .data          0x00000000        0x0 c:/ti/ccs1020/ccs/tools/compiler/gcc-arm-none-eabi-9-2019-q4-major/bin/../lib/gcc/arm-none-eabi/9.2.1/../../../../arm-none-eabi/lib/thumb/v7e-m+fp/hard\libc_nano.a(lib_a-memset.o)
 .bss           0x00000000        0x0 c:/ti/ccs1020/ccs/tools/compiler/gcc-arm-none-eabi-9-2019-q4-major/bin/../lib/gcc/arm-none-eabi/9.2.1/../../../../arm-none-eabi/lib/thumb/v7e-m+fp/hard\libc_nano.a(lib_a-memset.o)
 .text          0x00000000        0x0 c:/ti/ccs1020/ccs/tools/compiler/gcc-arm-none-eabi-9-2019-q4-major/bin/../lib/gcc/arm-none-eabi/9.2.1/../../../../arm-none-eabi/lib/thumb/v7e-m+fp/hard\libc_nano.a(lib_a-nano-mallocr.o)
 .data          0x00000000        0x0 c:/ti/ccs1020/ccs/tools/compiler/gcc-arm-none-eabi-9-2019-q4-major/bin/../lib/gcc/arm-none-eabi/9.2.1/../../../../arm-none-eabi/lib/thumb/v7e-m+fp/hard\libc_nano.a(lib_a-nano-mallocr.o)
 .bss           0x00000000        0x0 c:/ti/ccs1020/ccs/tools/compiler/gcc-arm-none-eabi-9-2019-q4-major/bin/../lib/gcc/arm-none-eabi/9.2.1/../../../../arm-none-eabi/lib/thumb/v7e-m+fp/hard\libc_nano.a(lib_a-nano-mallocr.o)
 .text._malloc_r
                0x00000000       0xb4 c:/ti/ccs1020/ccs/tools/compiler/gcc-arm-none-eabi-9-2019-q4-major/bin/../lib/gcc/arm-none-eabi/9.2.1/../../../../arm-none-eabi/lib/thumb/v7e-m+fp/hard\libc_nano.a(lib_a-nano-mallocr.o)
 .bss.__malloc_sbrk_start
                0x00000000        0x4 c:/ti/ccs1020/ccs/tools/compiler/gcc-arm-none-eabi-9-2019-q4-major/bin/../lib/gcc/arm-none-eabi/9.2.1/../../../../arm-none-eabi/lib/thumb/v7e-m+fp/hard\libc_nano.a(lib_a-nano-mallocr.o)
 .text          0x00000000        0x0 c:/ti/ccs1020/ccs/tools/compiler/gcc-arm-none-eabi-9-2019-q4-major/bin/../lib/gcc/arm-none-eabi/9.2.1/../../../../arm-none-eabi/lib/thumb/v7e-m+fp/hard\libc_nano.a(lib_a-reent.o)
 .data          0x00000000        0x0 c:/ti/ccs1020/ccs/tools/compiler/gcc-arm-none-eabi-9-2019-q4-major/bin/../lib/gcc/arm-none-eabi/9.2.1/../../../../arm-none-eabi/lib/thumb/v7e-m+fp/hard\libc_nano.a(lib_a-reent.o)
 .bss           0x00000000        0x0 c:/ti/ccs1020/ccs/tools/compiler/gcc-arm-none-eabi-9-2019-q4-major/bin/../lib/gcc/arm-none-eabi/9.2.1/../../../../arm-none-eabi/lib/thumb/v7e-m+fp/hard\libc_nano.a(lib_a-reent.o)
 COMMON         0x00000000        0x4 c:/ti/ccs1020/ccs/tools/compiler/gcc-arm-none-eabi-9-2019-q4-major/bin/../lib/gcc/arm-none-eabi/9.2.1/../../../../arm-none-eabi/lib/thumb/v7e-m+fp/hard\libc_nano.a(lib_a-reent.o)
 .text          0x00000000        0x0 c:/ti/ccs1020/ccs/tools/compiler/gcc-arm-none-eabi-9-2019-q4-major/bin/../lib/gcc/arm-none-eabi/9.2.1/../../../../arm-none-eabi/lib/thumb/v7e-m+fp/hard\libc_nano.a(lib_a-sbrkr.o)
 .data          0x00000000        0x0 c:/ti/ccs1020/ccs/tools/compiler/gcc-arm-none-eabi-9-2019-q4-major/bin/../lib/gcc/arm-none-eabi/9.2.1/../../../../arm-none-eabi/lib/thumb/v7e-m+fp/hard\libc_nano.a(lib_a-sbrkr.o)
 .bss           0x00000000        0x0 c:/ti/ccs1020/ccs/tools/compiler/gcc-arm-none-eabi-9-2019-q4-major/bin/../lib/gcc/arm-none-eabi/9.2.1/../../../../arm-none-eabi/lib/thumb/v7e-m+fp/hard\libc_nano.a(lib_a-sbrkr.o)
 .text._sbrk_r  0x00000000       0x20 c:/ti/ccs1020/ccs/tools/compiler/gcc-arm-none-eabi-9-2019-q4-major/bin/../lib/gcc/arm-none-eabi/9.2.1/../../../../arm-none-eabi/lib/thumb/v7e-m+fp/hard\libc_nano.a(lib_a-sbrkr.o)
 .debug_frame   0x00000000       0x2c c:/ti/ccs1020/ccs/tools/compiler/gcc-arm-none-eabi-9-2019-q4-major/bin/../lib/gcc/arm-none-eabi/9.2.1/../../../../arm-none-eabi/lib/thumb/v7e-m+fp/hard\libc_nano.a(lib_a-sbrkr.o)
 .ARM.attributes
                0x00000000       0x34 c:/ti/ccs1020/ccs/tools/compiler/gcc-arm-none-eabi-9-2019-q4-major/bin/../lib/gcc/arm-none-eabi/9.2.1/../../../../arm-none-eabi/lib/thumb/v7e-m+fp/hard\libc_nano.a(lib_a-sbrkr.o)
 .text          0x00000000        0x0 c:/ti/ccs1020/ccs/tools/compiler/gcc-arm-none-eabi-9-2019-q4-major/bin/../lib/gcc/arm-none-eabi/9.2.1/../../../../arm-none-eabi/lib/thumb/v7e-m+fp/hard\libc_nano.a(lib_a-stdio.o)
 .data          0x00000000        0x0 c:/ti/ccs1020/ccs/tools/compiler/gcc-arm-none-eabi-9-2019-q4-major/bin/../lib/gcc/arm-none-eabi/9.2.1/../../../../arm-none-eabi/lib/thumb/v7e-m+fp/hard\libc_nano.a(lib_a-stdio.o)
 .bss           0x00000000        0x0 c:/ti/ccs1020/ccs/tools/compiler/gcc-arm-none-eabi-9-2019-q4-major/bin/../lib/gcc/arm-none-eabi/9.2.1/../../../../arm-none-eabi/lib/thumb/v7e-m+fp/hard\libc_nano.a(lib_a-stdio.o)
 .text.__sread  0x00000000       0x22 c:/ti/ccs1020/ccs/tools/compiler/gcc-arm-none-eabi-9-2019-q4-major/bin/../lib/gcc/arm-none-eabi/9.2.1/../../../../arm-none-eabi/lib/thumb/v7e-m+fp/hard\libc_nano.a(lib_a-stdio.o)
 .text.__seofread
                0x00000000        0x4 c:/ti/ccs1020/ccs/tools/compiler/gcc-arm-none-eabi-9-2019-q4-major/bin/../lib/gcc/arm-none-eabi/9.2.1/../../../../arm-none-eabi/lib/thumb/v7e-m+fp/hard\libc_nano.a(lib_a-stdio.o)
 .text.__swrite
                0x00000000       0x38 c:/ti/ccs1020/ccs/tools/compiler/gcc-arm-none-eabi-9-2019-q4-major/bin/../lib/gcc/arm-none-eabi/9.2.1/../../../../arm-none-eabi/lib/thumb/v7e-m+fp/hard\libc_nano.a(lib_a-stdio.o)
 .text.__sseek  0x00000000       0x24 c:/ti/ccs1020/ccs/tools/compiler/gcc-arm-none-eabi-9-2019-q4-major/bin/../lib/gcc/arm-none-eabi/9.2.1/../../../../arm-none-eabi/lib/thumb/v7e-m+fp/hard\libc_nano.a(lib_a-stdio.o)
 .text.__sclose
                0x00000000        0x8 c:/ti/ccs1020/ccs/tools/compiler/gcc-arm-none-eabi-9-2019-q4-major/bin/../lib/gcc/arm-none-eabi/9.2.1/../../../../arm-none-eabi/lib/thumb/v7e-m+fp/hard\libc_nano.a(lib_a-stdio.o)
 .debug_frame   0x00000000       0x88 c:/ti/ccs1020/ccs/tools/compiler/gcc-arm-none-eabi-9-2019-q4-major/bin/../lib/gcc/arm-none-eabi/9.2.1/../../../../arm-none-eabi/lib/thumb/v7e-m+fp/hard\libc_nano.a(lib_a-stdio.o)
 .ARM.attributes
                0x00000000       0x34 c:/ti/ccs1020/ccs/tools/compiler/gcc-arm-none-eabi-9-2019-q4-major/bin/../lib/gcc/arm-none-eabi/9.2.1/../../../../arm-none-eabi/lib/thumb/v7e-m+fp/hard\libc_nano.a(lib_a-stdio.o)
 .data          0x00000000        0x0 c:/ti/ccs1020/ccs/tools/compiler/gcc-arm-none-eabi-9-2019-q4-major/bin/../lib/gcc/arm-none-eabi/9.2.1/../../../../arm-none-eabi/lib/thumb/v7e-m+fp/hard\libc_nano.a(lib_a-strlen.o)
 .bss           0x00000000        0x0 c:/ti/ccs1020/ccs/tools/compiler/gcc-arm-none-eabi-9-2019-q4-major/bin/../lib/gcc/arm-none-eabi/9.2.1/../../../../arm-none-eabi/lib/thumb/v7e-m+fp/hard\libc_nano.a(lib_a-strlen.o)
 .text          0x00000000        0x0 c:/ti/ccs1020/ccs/tools/compiler/gcc-arm-none-eabi-9-2019-q4-major/bin/../lib/gcc/arm-none-eabi/9.2.1/../../../../arm-none-eabi/lib/thumb/v7e-m+fp/hard\libc_nano.a(lib_a-writer.o)
 .data          0x00000000        0x0 c:/ti/ccs1020/ccs/tools/compiler/gcc-arm-none-eabi-9-2019-q4-major/bin/../lib/gcc/arm-none-eabi/9.2.1/../../../../arm-none-eabi/lib/thumb/v7e-m+fp/hard\libc_nano.a(lib_a-writer.o)
 .bss           0x00000000        0x0 c:/ti/ccs1020/ccs/tools/compiler/gcc-arm-none-eabi-9-2019-q4-major/bin/../lib/gcc/arm-none-eabi/9.2.1/../../../../arm-none-eabi/lib/thumb/v7e-m+fp/hard\libc_nano.a(lib_a-writer.o)
 .text._write_r
                0x00000000       0x24 c:/ti/ccs1020/ccs/tools/compiler/gcc-arm-none-eabi-9-2019-q4-major/bin/../lib/gcc/arm-none-eabi/9.2.1/../../../../arm-none-eabi/lib/thumb/v7e-m+fp/hard\libc_nano.a(lib_a-writer.o)
 .debug_frame   0x00000000       0x2c c:/ti/ccs1020/ccs/tools/compiler/gcc-arm-none-eabi-9-2019-q4-major/bin/../lib/gcc/arm-none-eabi/9.2.1/../../../../arm-none-eabi/lib/thumb/v7e-m+fp/hard\libc_nano.a(lib_a-writer.o)
 .ARM.attributes
                0x00000000       0x34 c:/ti/ccs1020/ccs/tools/compiler/gcc-arm-none-eabi-9-2019-q4-major/bin/../lib/gcc/arm-none-eabi/9.2.1/../../../../arm-none-eabi/lib/thumb/v7e-m+fp/hard\libc_nano.a(lib_a-writer.o)
 .text          0x00000000        0x0 c:/ti/ccs1020/ccs/tools/compiler/gcc-arm-none-eabi-9-2019-q4-major/bin/../lib/gcc/arm-none-eabi/9.2.1/../../../../arm-none-eabi/lib/thumb/v7e-m+fp/hard\libc_nano.a(lib_a-closer.o)
 .data          0x00000000        0x0 c:/ti/ccs1020/ccs/tools/compiler/gcc-arm-none-eabi-9-2019-q4-major/bin/../lib/gcc/arm-none-eabi/9.2.1/../../../../arm-none-eabi/lib/thumb/v7e-m+fp/hard\libc_nano.a(lib_a-closer.o)
 .bss           0x00000000        0x0 c:/ti/ccs1020/ccs/tools/compiler/gcc-arm-none-eabi-9-2019-q4-major/bin/../lib/gcc/arm-none-eabi/9.2.1/../../../../arm-none-eabi/lib/thumb/v7e-m+fp/hard\libc_nano.a(lib_a-closer.o)
 .text._close_r
                0x00000000       0x20 c:/ti/ccs1020/ccs/tools/compiler/gcc-arm-none-eabi-9-2019-q4-major/bin/../lib/gcc/arm-none-eabi/9.2.1/../../../../arm-none-eabi/lib/thumb/v7e-m+fp/hard\libc_nano.a(lib_a-closer.o)
 .debug_frame   0x00000000       0x2c c:/ti/ccs1020/ccs/tools/compiler/gcc-arm-none-eabi-9-2019-q4-major/bin/../lib/gcc/arm-none-eabi/9.2.1/../../../../arm-none-eabi/lib/thumb/v7e-m+fp/hard\libc_nano.a(lib_a-closer.o)
 .ARM.attributes
                0x00000000       0x34 c:/ti/ccs1020/ccs/tools/compiler/gcc-arm-none-eabi-9-2019-q4-major/bin/../lib/gcc/arm-none-eabi/9.2.1/../../../../arm-none-eabi/lib/thumb/v7e-m+fp/hard\libc_nano.a(lib_a-closer.o)
 .text          0x00000000        0x0 c:/ti/ccs1020/ccs/tools/compiler/gcc-arm-none-eabi-9-2019-q4-major/bin/../lib/gcc/arm-none-eabi/9.2.1/../../../../arm-none-eabi/lib/thumb/v7e-m+fp/hard\libc_nano.a(lib_a-fflush.o)
 .data          0x00000000        0x0 c:/ti/ccs1020/ccs/tools/compiler/gcc-arm-none-eabi-9-2019-q4-major/bin/../lib/gcc/arm-none-eabi/9.2.1/../../../../arm-none-eabi/lib/thumb/v7e-m+fp/hard\libc_nano.a(lib_a-fflush.o)
 .bss           0x00000000        0x0 c:/ti/ccs1020/ccs/tools/compiler/gcc-arm-none-eabi-9-2019-q4-major/bin/../lib/gcc/arm-none-eabi/9.2.1/../../../../arm-none-eabi/lib/thumb/v7e-m+fp/hard\libc_nano.a(lib_a-fflush.o)
 .text.__sflush_r
                0x00000000      0x10c c:/ti/ccs1020/ccs/tools/compiler/gcc-arm-none-eabi-9-2019-q4-major/bin/../lib/gcc/arm-none-eabi/9.2.1/../../../../arm-none-eabi/lib/thumb/v7e-m+fp/hard\libc_nano.a(lib_a-fflush.o)
 .text._fflush_r
                0x00000000       0x78 c:/ti/ccs1020/ccs/tools/compiler/gcc-arm-none-eabi-9-2019-q4-major/bin/../lib/gcc/arm-none-eabi/9.2.1/../../../../arm-none-eabi/lib/thumb/v7e-m+fp/hard\libc_nano.a(lib_a-fflush.o)
 .text.fflush   0x00000000       0x24 c:/ti/ccs1020/ccs/tools/compiler/gcc-arm-none-eabi-9-2019-q4-major/bin/../lib/gcc/arm-none-eabi/9.2.1/../../../../arm-none-eabi/lib/thumb/v7e-m+fp/hard\libc_nano.a(lib_a-fflush.o)
 .debug_frame   0x00000000       0x5c c:/ti/ccs1020/ccs/tools/compiler/gcc-arm-none-eabi-9-2019-q4-major/bin/../lib/gcc/arm-none-eabi/9.2.1/../../../../arm-none-eabi/lib/thumb/v7e-m+fp/hard\libc_nano.a(lib_a-fflush.o)
 .ARM.attributes
                0x00000000       0x34 c:/ti/ccs1020/ccs/tools/compiler/gcc-arm-none-eabi-9-2019-q4-major/bin/../lib/gcc/arm-none-eabi/9.2.1/../../../../arm-none-eabi/lib/thumb/v7e-m+fp/hard\libc_nano.a(lib_a-fflush.o)
 .text          0x00000000        0x0 c:/ti/ccs1020/ccs/tools/compiler/gcc-arm-none-eabi-9-2019-q4-major/bin/../lib/gcc/arm-none-eabi/9.2.1/../../../../arm-none-eabi/lib/thumb/v7e-m+fp/hard\libc_nano.a(lib_a-lseekr.o)
 .data          0x00000000        0x0 c:/ti/ccs1020/ccs/tools/compiler/gcc-arm-none-eabi-9-2019-q4-major/bin/../lib/gcc/arm-none-eabi/9.2.1/../../../../arm-none-eabi/lib/thumb/v7e-m+fp/hard\libc_nano.a(lib_a-lseekr.o)
 .bss           0x00000000        0x0 c:/ti/ccs1020/ccs/tools/compiler/gcc-arm-none-eabi-9-2019-q4-major/bin/../lib/gcc/arm-none-eabi/9.2.1/../../../../arm-none-eabi/lib/thumb/v7e-m+fp/hard\libc_nano.a(lib_a-lseekr.o)
 .text._lseek_r
                0x00000000       0x24 c:/ti/ccs1020/ccs/tools/compiler/gcc-arm-none-eabi-9-2019-q4-major/bin/../lib/gcc/arm-none-eabi/9.2.1/../../../../arm-none-eabi/lib/thumb/v7e-m+fp/hard\libc_nano.a(lib_a-lseekr.o)
 .debug_frame   0x00000000       0x2c c:/ti/ccs1020/ccs/tools/compiler/gcc-arm-none-eabi-9-2019-q4-major/bin/../lib/gcc/arm-none-eabi/9.2.1/../../../../arm-none-eabi/lib/thumb/v7e-m+fp/hard\libc_nano.a(lib_a-lseekr.o)
 .ARM.attributes
                0x00000000       0x34 c:/ti/ccs1020/ccs/tools/compiler/gcc-arm-none-eabi-9-2019-q4-major/bin/../lib/gcc/arm-none-eabi/9.2.1/../../../../arm-none-eabi/lib/thumb/v7e-m+fp/hard\libc_nano.a(lib_a-lseekr.o)
 .text          0x00000000        0x0 c:/ti/ccs1020/ccs/tools/compiler/gcc-arm-none-eabi-9-2019-q4-major/bin/../lib/gcc/arm-none-eabi/9.2.1/../../../../arm-none-eabi/lib/thumb/v7e-m+fp/hard\libc_nano.a(lib_a-mlock.o)
 .data          0x00000000        0x0 c:/ti/ccs1020/ccs/tools/compiler/gcc-arm-none-eabi-9-2019-q4-major/bin/../lib/gcc/arm-none-eabi/9.2.1/../../../../arm-none-eabi/lib/thumb/v7e-m+fp/hard\libc_nano.a(lib_a-mlock.o)
 .bss           0x00000000        0x0 c:/ti/ccs1020/ccs/tools/compiler/gcc-arm-none-eabi-9-2019-q4-major/bin/../lib/gcc/arm-none-eabi/9.2.1/../../../../arm-none-eabi/lib/thumb/v7e-m+fp/hard\libc_nano.a(lib_a-mlock.o)
 .text          0x00000000        0x0 c:/ti/ccs1020/ccs/tools/compiler/gcc-arm-none-eabi-9-2019-q4-major/bin/../lib/gcc/arm-none-eabi/9.2.1/../../../../arm-none-eabi/lib/thumb/v7e-m+fp/hard\libc_nano.a(lib_a-nano-freer.o)
 .data          0x00000000        0x0 c:/ti/ccs1020/ccs/tools/compiler/gcc-arm-none-eabi-9-2019-q4-major/bin/../lib/gcc/arm-none-eabi/9.2.1/../../../../arm-none-eabi/lib/thumb/v7e-m+fp/hard\libc_nano.a(lib_a-nano-freer.o)
 .bss           0x00000000        0x0 c:/ti/ccs1020/ccs/tools/compiler/gcc-arm-none-eabi-9-2019-q4-major/bin/../lib/gcc/arm-none-eabi/9.2.1/../../../../arm-none-eabi/lib/thumb/v7e-m+fp/hard\libc_nano.a(lib_a-nano-freer.o)
 .text          0x00000000        0x0 c:/ti/ccs1020/ccs/tools/compiler/gcc-arm-none-eabi-9-2019-q4-major/bin/../lib/gcc/arm-none-eabi/9.2.1/../../../../arm-none-eabi/lib/thumb/v7e-m+fp/hard\libc_nano.a(lib_a-readr.o)
 .data          0x00000000        0x0 c:/ti/ccs1020/ccs/tools/compiler/gcc-arm-none-eabi-9-2019-q4-major/bin/../lib/gcc/arm-none-eabi/9.2.1/../../../../arm-none-eabi/lib/thumb/v7e-m+fp/hard\libc_nano.a(lib_a-readr.o)
 .bss           0x00000000        0x0 c:/ti/ccs1020/ccs/tools/compiler/gcc-arm-none-eabi-9-2019-q4-major/bin/../lib/gcc/arm-none-eabi/9.2.1/../../../../arm-none-eabi/lib/thumb/v7e-m+fp/hard\libc_nano.a(lib_a-readr.o)
 .text._read_r  0x00000000       0x24 c:/ti/ccs1020/ccs/tools/compiler/gcc-arm-none-eabi-9-2019-q4-major/bin/../lib/gcc/arm-none-eabi/9.2.1/../../../../arm-none-eabi/lib/thumb/v7e-m+fp/hard\libc_nano.a(lib_a-readr.o)
 .debug_frame   0x00000000       0x2c c:/ti/ccs1020/ccs/tools/compiler/gcc-arm-none-eabi-9-2019-q4-major/bin/../lib/gcc/arm-none-eabi/9.2.1/../../../../arm-none-eabi/lib/thumb/v7e-m+fp/hard\libc_nano.a(lib_a-readr.o)
 .ARM.attributes
                0x00000000       0x34 c:/ti/ccs1020/ccs/tools/compiler/gcc-arm-none-eabi-9-2019-q4-major/bin/../lib/gcc/arm-none-eabi/9.2.1/../../../../arm-none-eabi/lib/thumb/v7e-m+fp/hard\libc_nano.a(lib_a-readr.o)
 .text          0x00000000        0x0 c:/ti/ccs1020/ccs/tools/compiler/gcc-arm-none-eabi-9-2019-q4-major/bin/../lib/gcc/arm-none-eabi/9.2.1/../../../../arm-none-eabi/lib/thumb/v7e-m+fp/hard\libnosys.a(close.o)
 .data          0x00000000        0x0 c:/ti/ccs1020/ccs/tools/compiler/gcc-arm-none-eabi-9-2019-q4-major/bin/../lib/gcc/arm-none-eabi/9.2.1/../../../../arm-none-eabi/lib/thumb/v7e-m+fp/hard\libnosys.a(close.o)
 .bss           0x00000000        0x0 c:/ti/ccs1020/ccs/tools/compiler/gcc-arm-none-eabi-9-2019-q4-major/bin/../lib/gcc/arm-none-eabi/9.2.1/../../../../arm-none-eabi/lib/thumb/v7e-m+fp/hard\libnosys.a(close.o)
 .stab          0x00000000       0x24 c:/ti/ccs1020/ccs/tools/compiler/gcc-arm-none-eabi-9-2019-q4-major/bin/../lib/gcc/arm-none-eabi/9.2.1/../../../../arm-none-eabi/lib/thumb/v7e-m+fp/hard\libnosys.a(close.o)
 .text._close   0x00000000       0x10 c:/ti/ccs1020/ccs/tools/compiler/gcc-arm-none-eabi-9-2019-q4-major/bin/../lib/gcc/arm-none-eabi/9.2.1/../../../../arm-none-eabi/lib/thumb/v7e-m+fp/hard\libnosys.a(close.o)
 .debug_frame   0x00000000       0x20 c:/ti/ccs1020/ccs/tools/compiler/gcc-arm-none-eabi-9-2019-q4-major/bin/../lib/gcc/arm-none-eabi/9.2.1/../../../../arm-none-eabi/lib/thumb/v7e-m+fp/hard\libnosys.a(close.o)
 .ARM.attributes
                0x00000000       0x34 c:/ti/ccs1020/ccs/tools/compiler/gcc-arm-none-eabi-9-2019-q4-major/bin/../lib/gcc/arm-none-eabi/9.2.1/../../../../arm-none-eabi/lib/thumb/v7e-m+fp/hard\libnosys.a(close.o)
 .text          0x00000000        0x0 c:/ti/ccs1020/ccs/tools/compiler/gcc-arm-none-eabi-9-2019-q4-major/bin/../lib/gcc/arm-none-eabi/9.2.1/../../../../arm-none-eabi/lib/thumb/v7e-m+fp/hard\libnosys.a(lseek.o)
 .data          0x00000000        0x0 c:/ti/ccs1020/ccs/tools/compiler/gcc-arm-none-eabi-9-2019-q4-major/bin/../lib/gcc/arm-none-eabi/9.2.1/../../../../arm-none-eabi/lib/thumb/v7e-m+fp/hard\libnosys.a(lseek.o)
 .bss           0x00000000        0x0 c:/ti/ccs1020/ccs/tools/compiler/gcc-arm-none-eabi-9-2019-q4-major/bin/../lib/gcc/arm-none-eabi/9.2.1/../../../../arm-none-eabi/lib/thumb/v7e-m+fp/hard\libnosys.a(lseek.o)
 .stab          0x00000000       0x18 c:/ti/ccs1020/ccs/tools/compiler/gcc-arm-none-eabi-9-2019-q4-major/bin/../lib/gcc/arm-none-eabi/9.2.1/../../../../arm-none-eabi/lib/thumb/v7e-m+fp/hard\libnosys.a(lseek.o)
                                 0x24 (size before relaxing)
 .text._lseek   0x00000000       0x10 c:/ti/ccs1020/ccs/tools/compiler/gcc-arm-none-eabi-9-2019-q4-major/bin/../lib/gcc/arm-none-eabi/9.2.1/../../../../arm-none-eabi/lib/thumb/v7e-m+fp/hard\libnosys.a(lseek.o)
 .debug_frame   0x00000000       0x20 c:/ti/ccs1020/ccs/tools/compiler/gcc-arm-none-eabi-9-2019-q4-major/bin/../lib/gcc/arm-none-eabi/9.2.1/../../../../arm-none-eabi/lib/thumb/v7e-m+fp/hard\libnosys.a(lseek.o)
 .ARM.attributes
                0x00000000       0x34 c:/ti/ccs1020/ccs/tools/compiler/gcc-arm-none-eabi-9-2019-q4-major/bin/../lib/gcc/arm-none-eabi/9.2.1/../../../../arm-none-eabi/lib/thumb/v7e-m+fp/hard\libnosys.a(lseek.o)
 .text          0x00000000        0x0 c:/ti/ccs1020/ccs/tools/compiler/gcc-arm-none-eabi-9-2019-q4-major/bin/../lib/gcc/arm-none-eabi/9.2.1/../../../../arm-none-eabi/lib/thumb/v7e-m+fp/hard\libnosys.a(read.o)
 .data          0x00000000        0x0 c:/ti/ccs1020/ccs/tools/compiler/gcc-arm-none-eabi-9-2019-q4-major/bin/../lib/gcc/arm-none-eabi/9.2.1/../../../../arm-none-eabi/lib/thumb/v7e-m+fp/hard\libnosys.a(read.o)
 .bss           0x00000000        0x0 c:/ti/ccs1020/ccs/tools/compiler/gcc-arm-none-eabi-9-2019-q4-major/bin/../lib/gcc/arm-none-eabi/9.2.1/../../../../arm-none-eabi/lib/thumb/v7e-m+fp/hard\libnosys.a(read.o)
 .stab          0x00000000       0x18 c:/ti/ccs1020/ccs/tools/compiler/gcc-arm-none-eabi-9-2019-q4-major/bin/../lib/gcc/arm-none-eabi/9.2.1/../../../../arm-none-eabi/lib/thumb/v7e-m+fp/hard\libnosys.a(read.o)
                                 0x24 (size before relaxing)
 .text._read    0x00000000       0x10 c:/ti/ccs1020/ccs/tools/compiler/gcc-arm-none-eabi-9-2019-q4-major/bin/../lib/gcc/arm-none-eabi/9.2.1/../../../../arm-none-eabi/lib/thumb/v7e-m+fp/hard\libnosys.a(read.o)
 .debug_frame   0x00000000       0x20 c:/ti/ccs1020/ccs/tools/compiler/gcc-arm-none-eabi-9-2019-q4-major/bin/../lib/gcc/arm-none-eabi/9.2.1/../../../../arm-none-eabi/lib/thumb/v7e-m+fp/hard\libnosys.a(read.o)
 .ARM.attributes
                0x00000000       0x34 c:/ti/ccs1020/ccs/tools/compiler/gcc-arm-none-eabi-9-2019-q4-major/bin/../lib/gcc/arm-none-eabi/9.2.1/../../../../arm-none-eabi/lib/thumb/v7e-m+fp/hard\libnosys.a(read.o)
 .text          0x00000000        0x0 c:/ti/ccs1020/ccs/tools/compiler/gcc-arm-none-eabi-9-2019-q4-major/bin/../lib/gcc/arm-none-eabi/9.2.1/../../../../arm-none-eabi/lib/thumb/v7e-m+fp/hard\libnosys.a(sbrk.o)
 .data          0x00000000        0x0 c:/ti/ccs1020/ccs/tools/compiler/gcc-arm-none-eabi-9-2019-q4-major/bin/../lib/gcc/arm-none-eabi/9.2.1/../../../../arm-none-eabi/lib/thumb/v7e-m+fp/hard\libnosys.a(sbrk.o)
 .bss           0x00000000        0x0 c:/ti/ccs1020/ccs/tools/compiler/gcc-arm-none-eabi-9-2019-q4-major/bin/../lib/gcc/arm-none-eabi/9.2.1/../../../../arm-none-eabi/lib/thumb/v7e-m+fp/hard\libnosys.a(sbrk.o)
 .text._sbrk    0x00000000       0x1c c:/ti/ccs1020/ccs/tools/compiler/gcc-arm-none-eabi-9-2019-q4-major/bin/../lib/gcc/arm-none-eabi/9.2.1/../../../../arm-none-eabi/lib/thumb/v7e-m+fp/hard\libnosys.a(sbrk.o)
 .bss.heap_end.5507
                0x00000000        0x4 c:/ti/ccs1020/ccs/tools/compiler/gcc-arm-none-eabi-9-2019-q4-major/bin/../lib/gcc/arm-none-eabi/9.2.1/../../../../arm-none-eabi/lib/thumb/v7e-m+fp/hard\libnosys.a(sbrk.o)
 .debug_frame   0x00000000       0x20 c:/ti/ccs1020/ccs/tools/compiler/gcc-arm-none-eabi-9-2019-q4-major/bin/../lib/gcc/arm-none-eabi/9.2.1/../../../../arm-none-eabi/lib/thumb/v7e-m+fp/hard\libnosys.a(sbrk.o)
 .ARM.attributes
                0x00000000       0x34 c:/ti/ccs1020/ccs/tools/compiler/gcc-arm-none-eabi-9-2019-q4-major/bin/../lib/gcc/arm-none-eabi/9.2.1/../../../../arm-none-eabi/lib/thumb/v7e-m+fp/hard\libnosys.a(sbrk.o)
 .text          0x00000000        0x0 c:/ti/ccs1020/ccs/tools/compiler/gcc-arm-none-eabi-9-2019-q4-major/bin/../lib/gcc/arm-none-eabi/9.2.1/../../../../arm-none-eabi/lib/thumb/v7e-m+fp/hard\libnosys.a(write.o)
 .data          0x00000000        0x0 c:/ti/ccs1020/ccs/tools/compiler/gcc-arm-none-eabi-9-2019-q4-major/bin/../lib/gcc/arm-none-eabi/9.2.1/../../../../arm-none-eabi/lib/thumb/v7e-m+fp/hard\libnosys.a(write.o)
 .bss           0x00000000        0x0 c:/ti/ccs1020/ccs/tools/compiler/gcc-arm-none-eabi-9-2019-q4-major/bin/../lib/gcc/arm-none-eabi/9.2.1/../../../../arm-none-eabi/lib/thumb/v7e-m+fp/hard\libnosys.a(write.o)
 .stab          0x00000000       0x18 c:/ti/ccs1020/ccs/tools/compiler/gcc-arm-none-eabi-9-2019-q4-major/bin/../lib/gcc/arm-none-eabi/9.2.1/../../../../arm-none-eabi/lib/thumb/v7e-m+fp/hard\libnosys.a(write.o)
                                 0x24 (size before relaxing)
 .text._write   0x00000000       0x10 c:/ti/ccs1020/ccs/tools/compiler/gcc-arm-none-eabi-9-2019-q4-major/bin/../lib/gcc/arm-none-eabi/9.2.1/../../../../arm-none-eabi/lib/thumb/v7e-m+fp/hard\libnosys.a(write.o)
 .debug_frame   0x00000000       0x20 c:/ti/ccs1020/ccs/tools/compiler/gcc-arm-none-eabi-9-2019-q4-major/bin/../lib/gcc/arm-none-eabi/9.2.1/../../../../arm-none-eabi/lib/thumb/v7e-m+fp/hard\libnosys.a(write.o)
 .ARM.attributes
                0x00000000       0x34 c:/ti/ccs1020/ccs/tools/compiler/gcc-arm-none-eabi-9-2019-q4-major/bin/../lib/gcc/arm-none-eabi/9.2.1/../../../../arm-none-eabi/lib/thumb/v7e-m+fp/hard\libnosys.a(write.o)

Memory Configuration

Name             Origin             Length             Attributes
FLASH            0x00000000         0x00100000         xr
SRAM             0x20000000         0x00040000         xrw
*default*        0x00000000         0xffffffff

Linker script and memory map

LOAD ./MLX90614.o
LOAD ./i2ctmp.o
LOAD ./syscfg/ti_drivers_config.o
LOAD ./main_freertos.o
                0x00000800                STACKSIZE = 0x800
                0x00000000                PROVIDE (_intvecs_base_address = DEFINED (_intvecs_base_address)?_intvecs_base_address:0x0)

.intvecs        0x00000000      0x200
 *(.intvecs)
 .intvecs       0x00000000      0x200 C:/Users/Ravonte/workspace_v10/freertos_builds_MSP_EXP432E401Y_release_gcc/Debug\libfreertos_builds_MSP_EXP432E401Y_release_gcc.a(startup_msp432e4_gcc.o)
                0x00000000                interruptVectors
                0x20000000                PROVIDE (_vtable_base_address = DEFINED (_vtable_base_address)?_vtable_base_address:0x20000000)

.vtable
 *(.vtable)

.text           0x00000200     0x85c4
 CREATE_OBJECT_SYMBOLS
 *(.text)
 .text          0x00000200      0x254 c:/ti/ccs1020/ccs/tools/compiler/gcc-arm-none-eabi-9-2019-q4-major/bin/../lib/gcc/arm-none-eabi/9.2.1/thumb/v7e-m+fp/hard\libgcc.a(_arm_muldf3.o)
                0x00000200                __muldf3
                0x00000200                __aeabi_dmul
 .text          0x00000454      0x378 c:/ti/ccs1020/ccs/tools/compiler/gcc-arm-none-eabi-9-2019-q4-major/bin/../lib/gcc/arm-none-eabi/9.2.1/thumb/v7e-m+fp/hard\libgcc.a(_arm_addsubdf3.o)
                0x00000454                __aeabi_drsub
                0x0000045c                __aeabi_dsub
                0x0000045c                __subdf3
                0x00000460                __aeabi_dadd
                0x00000460                __adddf3
                0x000006d8                __floatunsidf
                0x000006d8                __aeabi_ui2d
                0x000006f8                __floatsidf
                0x000006f8                __aeabi_i2d
                0x0000071c                __aeabi_f2d
                0x0000071c                __extendsfdf2
                0x00000760                __floatundidf
                0x00000760                __aeabi_ul2d
                0x00000770                __floatdidf
                0x00000770                __aeabi_l2d
 .text          0x000007cc      0x110 c:/ti/ccs1020/ccs/tools/compiler/gcc-arm-none-eabi-9-2019-q4-major/bin/../lib/gcc/arm-none-eabi/9.2.1/thumb/v7e-m+fp/hard\libgcc.a(_arm_cmpdf2.o)
                0x000007cc                __gtdf2
                0x000007cc                __gedf2
                0x000007d4                __ltdf2
                0x000007d4                __ledf2
                0x000007dc                __nedf2
                0x000007dc                __eqdf2
                0x000007dc                __cmpdf2
                0x00000858                __aeabi_cdrcmple
                0x00000868                __aeabi_cdcmpeq
                0x00000868                __aeabi_cdcmple
                0x00000878                __aeabi_dcmpeq
                0x0000088c                __aeabi_dcmplt
                0x000008a0                __aeabi_dcmple
                0x000008b4                __aeabi_dcmpge
                0x000008c8                __aeabi_dcmpgt
 .text          0x000008dc       0x50 c:/ti/ccs1020/ccs/tools/compiler/gcc-arm-none-eabi-9-2019-q4-major/bin/../lib/gcc/arm-none-eabi/9.2.1/thumb/v7e-m+fp/hard\libgcc.a(_arm_fixdfsi.o)
                0x000008dc                __aeabi_d2iz
                0x000008dc                __fixdfsi
 .text          0x0000092c       0x40 c:/ti/ccs1020/ccs/tools/compiler/gcc-arm-none-eabi-9-2019-q4-major/bin/../lib/gcc/arm-none-eabi/9.2.1/thumb/v7e-m+fp/hard\libgcc.a(_arm_fixunsdfsi.o)
                0x0000092c                __aeabi_d2uiz
                0x0000092c                __fixunsdfsi
 .text          0x0000096c       0x10 c:/ti/ccs1020/ccs/tools/compiler/gcc-arm-none-eabi-9-2019-q4-major/bin/../lib/gcc/arm-none-eabi/9.2.1/../../../../arm-none-eabi/lib/thumb/v7e-m+fp/hard\libc_nano.a(lib_a-strlen.o)
                0x0000096c                strlen
 *(.text.*)
 *fill*         0x0000097c        0x4 
 .text.mainThread
                0x00000980      0x278 ./MLX90614.o
                0x00000980                mainThread
 .text.i2cErrorHandler
                0x00000bf8      0x11c ./MLX90614.o
 .text.Board_initHook
                0x00000d14        0xe ./syscfg/ti_drivers_config.o
                0x00000d14                Board_initHook
 *fill*         0x00000d22        0x2 
 .text.Board_init
                0x00000d24       0x38 ./syscfg/ti_drivers_config.o
                0x00000d24                Board_init
 .text.main     0x00000d5c       0x7c ./main_freertos.o
                0x00000d5c                main
 .text.vApplicationStackOverflowHook
                0x00000dd8        0xc ./main_freertos.o
                0x00000dd8                vApplicationStackOverflowHook
 .text.Display_doOpen
                0x00000de4       0x60 C:/ti/simplelink_msp432e4_sdk_4_20_00_12/source\ti/display/lib/display.am4fg(Display.om4fg)
                0x00000de4                Display_doOpen
 .text.Display_doPrintf
                0x00000e44       0x24 C:/ti/simplelink_msp432e4_sdk_4_20_00_12/source\ti/display/lib/display.am4fg(Display.om4fg)
                0x00000e44                Display_doPrintf
 .text.Display_doInit
                0x00000e68       0x2c C:/ti/simplelink_msp432e4_sdk_4_20_00_12/source\ti/display/lib/display.am4fg(Display.om4fg)
                0x00000e68                Display_doInit
 .text.DisplayUartMin_init
                0x00000e94        0x4 C:/ti/simplelink_msp432e4_sdk_4_20_00_12/source\ti/display/lib/display.am4fg(DisplayUart.om4fg)
                0x00000e94                DisplayUartMin_init
 .text.DisplayUartMin_clearLines
                0x00000e98        0x4 C:/ti/simplelink_msp432e4_sdk_4_20_00_12/source\ti/display/lib/display.am4fg(DisplayUart.om4fg)
                0x00000e98                DisplayUartMin_clearLines
 .text.DisplayUartMin_control
                0x00000e9c        0x8 C:/ti/simplelink_msp432e4_sdk_4_20_00_12/source\ti/display/lib/display.am4fg(DisplayUart.om4fg)
                0x00000e9c                DisplayUartMin_control
 .text.DisplayUartMin_getType
                0x00000ea4        0x8 C:/ti/simplelink_msp432e4_sdk_4_20_00_12/source\ti/display/lib/display.am4fg(DisplayUart.om4fg)
                0x00000ea4                DisplayUartMin_getType
 .text.DisplayUartMin_open
                0x00000eac       0x48 C:/ti/simplelink_msp432e4_sdk_4_20_00_12/source\ti/display/lib/display.am4fg(DisplayUart.om4fg)
                0x00000eac                DisplayUartMin_open
 .text.DisplayUartMin_vprintf
                0x00000ef4       0x4c C:/ti/simplelink_msp432e4_sdk_4_20_00_12/source\ti/display/lib/display.am4fg(DisplayUart.om4fg)
                0x00000ef4                DisplayUartMin_vprintf
 .text.DisplayUartMin_close
                0x00000f40       0x18 C:/ti/simplelink_msp432e4_sdk_4_20_00_12/source\ti/display/lib/display.am4fg(DisplayUart.om4fg)
                0x00000f40                DisplayUartMin_close
 .text.DisplayUartMin_clear
                0x00000f58        0x4 C:/ti/simplelink_msp432e4_sdk_4_20_00_12/source\ti/display/lib/display.am4fg(DisplayUart.om4fg)
                0x00000f58                DisplayUartMin_clear
 .text.GPIO_hwiIntFxn
                0x00000f5c       0x60 C:/ti/simplelink_msp432e4_sdk_4_20_00_12/source\ti/drivers/lib/drivers_msp432e4.am4fg(GPIOMSP432E4.om4fg)
                0x00000f5c                GPIO_hwiIntFxn
 .text.GPIO_setCallback
                0x00000fbc       0x5c C:/ti/simplelink_msp432e4_sdk_4_20_00_12/source\ti/drivers/lib/drivers_msp432e4.am4fg(GPIOMSP432E4.om4fg)
                0x00000fbc                GPIO_setCallback
 .text.GPIO_setConfig
                0x00001018      0x1c4 C:/ti/simplelink_msp432e4_sdk_4_20_00_12/source\ti/drivers/lib/drivers_msp432e4.am4fg(GPIOMSP432E4.om4fg)
                0x00001018                GPIO_setConfig
 .text.GPIO_init
                0x000011dc       0xdc C:/ti/simplelink_msp432e4_sdk_4_20_00_12/source\ti/drivers/lib/drivers_msp432e4.am4fg(GPIOMSP432E4.om4fg)
                0x000011dc                GPIO_init
 .text.GPIO_write
                0x000012b8       0x50 C:/ti/simplelink_msp432e4_sdk_4_20_00_12/source\ti/drivers/lib/drivers_msp432e4.am4fg(GPIOMSP432E4.om4fg)
                0x000012b8                GPIO_write
 .text.GPIOMSP432E4_getGpioBaseAddr
                0x00001308       0x14 C:/ti/simplelink_msp432e4_sdk_4_20_00_12/source\ti/drivers/lib/drivers_msp432e4.am4fg(GPIOMSP432E4.om4fg)
                0x00001308                GPIOMSP432E4_getGpioBaseAddr
 .text.GPIOMSP432E4_getPowerResourceId
                0x0000131c       0x14 C:/ti/simplelink_msp432e4_sdk_4_20_00_12/source\ti/drivers/lib/drivers_msp432e4.am4fg(GPIOMSP432E4.om4fg)
                0x0000131c                GPIOMSP432E4_getPowerResourceId
 .text.GPIOMSP432E4_undoPinConfig
                0x00001330       0x4c C:/ti/simplelink_msp432e4_sdk_4_20_00_12/source\ti/drivers/lib/drivers_msp432e4.am4fg(GPIOMSP432E4.om4fg)
                0x00001330                GPIOMSP432E4_undoPinConfig
 .text.I2C_close
                0x0000137c        0x8 C:/ti/simplelink_msp432e4_sdk_4_20_00_12/source\ti/drivers/lib/drivers_msp432e4.am4fg(I2C.om4fg)
                0x0000137c                I2C_close
 .text.I2C_init
                0x00001384       0x4c C:/ti/simplelink_msp432e4_sdk_4_20_00_12/source\ti/drivers/lib/drivers_msp432e4.am4fg(I2C.om4fg)
                0x00001384                I2C_init
 .text.I2C_open
                0x000013d0       0x44 C:/ti/simplelink_msp432e4_sdk_4_20_00_12/source\ti/drivers/lib/drivers_msp432e4.am4fg(I2C.om4fg)
                0x000013d0                I2C_open
 .text.I2C_Params_init
                0x00001414        0xc C:/ti/simplelink_msp432e4_sdk_4_20_00_12/source\ti/drivers/lib/drivers_msp432e4.am4fg(I2C.om4fg)
                0x00001414                I2C_Params_init
 .text.I2C_transfer
                0x00001420       0x14 C:/ti/simplelink_msp432e4_sdk_4_20_00_12/source\ti/drivers/lib/drivers_msp432e4.am4fg(I2C.om4fg)
                0x00001420                I2C_transfer
 .text.I2CMSP432E4_getPowerMgrId
                0x00001434       0x98 C:/ti/simplelink_msp432e4_sdk_4_20_00_12/source\ti/drivers/lib/drivers_msp432e4.am4fg(I2CMSP432E4.om4fg)
 .text.I2CMSP432E4_control
                0x000014cc        0x8 C:/ti/simplelink_msp432e4_sdk_4_20_00_12/source\ti/drivers/lib/drivers_msp432e4.am4fg(I2CMSP432E4.om4fg)
                0x000014cc                I2CMSP432E4_control
 .text.I2CMSP432E4_init
                0x000014d4        0x4 C:/ti/simplelink_msp432e4_sdk_4_20_00_12/source\ti/drivers/lib/drivers_msp432e4.am4fg(I2CMSP432E4.om4fg)
                0x000014d4                I2CMSP432E4_init
 .text.I2CMSP432E4_cancel
                0x000014d8       0x2c C:/ti/simplelink_msp432e4_sdk_4_20_00_12/source\ti/drivers/lib/drivers_msp432e4.am4fg(I2CMSP432E4.om4fg)
                0x000014d8                I2CMSP432E4_cancel
 .text.I2CMSP432E4_close
                0x00001504       0x70 C:/ti/simplelink_msp432e4_sdk_4_20_00_12/source\ti/drivers/lib/drivers_msp432e4.am4fg(I2CMSP432E4.om4fg)
                0x00001504                I2CMSP432E4_close
 .text.I2CMSP432E4_blockingCallback
                0x00001574        0x8 C:/ti/simplelink_msp432e4_sdk_4_20_00_12/source\ti/drivers/lib/drivers_msp432e4.am4fg(I2CMSP432E4.om4fg)
 .text.I2CMSP432E4_primeReadBurst.isra.0
                0x0000157c       0x6c C:/ti/simplelink_msp432e4_sdk_4_20_00_12/source\ti/drivers/lib/drivers_msp432e4.am4fg(I2CMSP432E4.om4fg)
 .text.I2CMSP432E4_initHw.isra.0
                0x000015e8       0x7c C:/ti/simplelink_msp432e4_sdk_4_20_00_12/source\ti/drivers/lib/drivers_msp432e4.am4fg(I2CMSP432E4.om4fg)
 .text.I2CMSP432E4_open
                0x00001664      0x138 C:/ti/simplelink_msp432e4_sdk_4_20_00_12/source\ti/drivers/lib/drivers_msp432e4.am4fg(I2CMSP432E4.om4fg)
                0x00001664                I2CMSP432E4_open
 .text.I2CMSP432E4_primeWriteBurst
                0x0000179c       0x98 C:/ti/simplelink_msp432e4_sdk_4_20_00_12/source\ti/drivers/lib/drivers_msp432e4.am4fg(I2CMSP432E4.om4fg)
 .text.I2CMSP432E4_primeTransfer
                0x00001834       0x80 C:/ti/simplelink_msp432e4_sdk_4_20_00_12/source\ti/drivers/lib/drivers_msp432e4.am4fg(I2CMSP432E4.om4fg)
 .text.I2CMSP432E4_transfer
                0x000018b4      0x11c C:/ti/simplelink_msp432e4_sdk_4_20_00_12/source\ti/drivers/lib/drivers_msp432e4.am4fg(I2CMSP432E4.om4fg)
                0x000018b4                I2CMSP432E4_transfer
 .text.I2CMSP432E4_reset
                0x000019d0       0xe8 C:/ti/simplelink_msp432e4_sdk_4_20_00_12/source\ti/drivers/lib/drivers_msp432e4.am4fg(I2CMSP432E4.om4fg)
                0x000019d0                I2CMSP432E4_reset
 .text.I2CMSP432E4_completeTransfer
                0x00001ab8       0xc8 C:/ti/simplelink_msp432e4_sdk_4_20_00_12/source\ti/drivers/lib/drivers_msp432e4.am4fg(I2CMSP432E4.om4fg)
 .text.I2CMSP432E4_hwiFxn
                0x00001b80      0x1c4 C:/ti/simplelink_msp432e4_sdk_4_20_00_12/source\ti/drivers/lib/drivers_msp432e4.am4fg(I2CMSP432E4.om4fg)
 .text.Power_idleFunc
                0x00001d44       0x18 C:/ti/simplelink_msp432e4_sdk_4_20_00_12/source\ti/drivers/lib/drivers_msp432e4.am4fg(PowerMSP432E4.om4fg)
                0x00001d44                Power_idleFunc
 .text.Power_init
                0x00001d5c       0x68 C:/ti/simplelink_msp432e4_sdk_4_20_00_12/source\ti/drivers/lib/drivers_msp432e4.am4fg(PowerMSP432E4.om4fg)
                0x00001d5c                Power_init
 .text.Power_releaseDependency
                0x00001dc4       0x74 C:/ti/simplelink_msp432e4_sdk_4_20_00_12/source\ti/drivers/lib/drivers_msp432e4.am4fg(PowerMSP432E4.om4fg)
                0x00001dc4                Power_releaseDependency
 .text.Power_setDependency
                0x00001e38       0x6c C:/ti/simplelink_msp432e4_sdk_4_20_00_12/source\ti/drivers/lib/drivers_msp432e4.am4fg(PowerMSP432E4.om4fg)
                0x00001e38                Power_setDependency
 .text.UART_close
                0x00001ea4        0x8 C:/ti/simplelink_msp432e4_sdk_4_20_00_12/source\ti/drivers/lib/drivers_msp432e4.am4fg(UART.om4fg)
                0x00001ea4                UART_close
 .text.UART_control
                0x00001eac        0x8 C:/ti/simplelink_msp432e4_sdk_4_20_00_12/source\ti/drivers/lib/drivers_msp432e4.am4fg(UART.om4fg)
                0x00001eac                UART_control
 .text.UART_init
                0x00001eb4       0x4c C:/ti/simplelink_msp432e4_sdk_4_20_00_12/source\ti/drivers/lib/drivers_msp432e4.am4fg(UART.om4fg)
                0x00001eb4                UART_init
 .text.UART_open
                0x00001f00       0x44 C:/ti/simplelink_msp432e4_sdk_4_20_00_12/source\ti/drivers/lib/drivers_msp432e4.am4fg(UART.om4fg)
                0x00001f00                UART_open
 .text.UART_Params_init
                0x00001f44       0x1c C:/ti/simplelink_msp432e4_sdk_4_20_00_12/source\ti/drivers/lib/drivers_msp432e4.am4fg(UART.om4fg)
                0x00001f44                UART_Params_init
 .text.UART_write
                0x00001f60        0x8 C:/ti/simplelink_msp432e4_sdk_4_20_00_12/source\ti/drivers/lib/drivers_msp432e4.am4fg(UART.om4fg)
                0x00001f60                UART_write
 .text.UARTMSP432E4_init
                0x00001f68        0x4 C:/ti/simplelink_msp432e4_sdk_4_20_00_12/source\ti/drivers/lib/drivers_msp432e4.am4fg(UARTMSP432E4.om4fg)
                0x00001f68                UARTMSP432E4_init
 .text.getPowerResourceId
                0x00001f6c       0x78 C:/ti/simplelink_msp432e4_sdk_4_20_00_12/source\ti/drivers/lib/drivers_msp432e4.am4fg(UARTMSP432E4.om4fg)
 .text.UARTMSP432E4_close
                0x00001fe4       0xb4 C:/ti/simplelink_msp432e4_sdk_4_20_00_12/source\ti/drivers/lib/drivers_msp432e4.am4fg(UARTMSP432E4.om4fg)
                0x00001fe4                UARTMSP432E4_close
 .text.UARTMSP432E4_control
                0x00002098       0x9c C:/ti/simplelink_msp432e4_sdk_4_20_00_12/source\ti/drivers/lib/drivers_msp432e4.am4fg(UARTMSP432E4.om4fg)
                0x00002098                UARTMSP432E4_control
 .text.UARTMSP432E4_read
                0x00002134       0x40 C:/ti/simplelink_msp432e4_sdk_4_20_00_12/source\ti/drivers/lib/drivers_msp432e4.am4fg(UARTMSP432E4.om4fg)
                0x00002134                UARTMSP432E4_read
 .text.UARTMSP432E4_readCancel
                0x00002174       0x38 C:/ti/simplelink_msp432e4_sdk_4_20_00_12/source\ti/drivers/lib/drivers_msp432e4.am4fg(UARTMSP432E4.om4fg)
                0x00002174                UARTMSP432E4_readCancel
 .text.UARTMSP432E4_writeCancel
                0x000021ac       0x4c C:/ti/simplelink_msp432e4_sdk_4_20_00_12/source\ti/drivers/lib/drivers_msp432e4.am4fg(UARTMSP432E4.om4fg)
                0x000021ac                UARTMSP432E4_writeCancel
 .text.UARTMSP432E4_open
                0x000021f8      0x324 C:/ti/simplelink_msp432e4_sdk_4_20_00_12/source\ti/drivers/lib/drivers_msp432e4.am4fg(UARTMSP432E4.om4fg)
                0x000021f8                UARTMSP432E4_open
 .text.readBlockingTimeout
                0x0000251c       0x10 C:/ti/simplelink_msp432e4_sdk_4_20_00_12/source\ti/drivers/lib/drivers_msp432e4.am4fg(UARTMSP432E4.om4fg)
 .text.readSemCallback
                0x0000252c        0x8 C:/ti/simplelink_msp432e4_sdk_4_20_00_12/source\ti/drivers/lib/drivers_msp432e4.am4fg(UARTMSP432E4.om4fg)
 .text.writeSemCallback
                0x00002534        0x8 C:/ti/simplelink_msp432e4_sdk_4_20_00_12/source\ti/drivers/lib/drivers_msp432e4.am4fg(UARTMSP432E4.om4fg)
 .text.writeData
                0x0000253c       0x90 C:/ti/simplelink_msp432e4_sdk_4_20_00_12/source\ti/drivers/lib/drivers_msp432e4.am4fg(UARTMSP432E4.om4fg)
 .text.UARTMSP432E4_hwiIntFxn
                0x000025cc       0x58 C:/ti/simplelink_msp432e4_sdk_4_20_00_12/source\ti/drivers/lib/drivers_msp432e4.am4fg(UARTMSP432E4.om4fg)
 .text.UARTMSP432E4_writePolling
                0x00002624       0x5c C:/ti/simplelink_msp432e4_sdk_4_20_00_12/source\ti/drivers/lib/drivers_msp432e4.am4fg(UARTMSP432E4.om4fg)
                0x00002624                UARTMSP432E4_writePolling
 .text.readIsrTextBlocking
                0x00002680       0xb8 C:/ti/simplelink_msp432e4_sdk_4_20_00_12/source\ti/drivers/lib/drivers_msp432e4.am4fg(UARTMSP432E4.om4fg)
 .text.readIsrBinaryBlocking
                0x00002738       0x7c C:/ti/simplelink_msp432e4_sdk_4_20_00_12/source\ti/drivers/lib/drivers_msp432e4.am4fg(UARTMSP432E4.om4fg)
 .text.UARTMSP432E4_write
                0x000027b4       0xb8 C:/ti/simplelink_msp432e4_sdk_4_20_00_12/source\ti/drivers/lib/drivers_msp432e4.am4fg(UARTMSP432E4.om4fg)
                0x000027b4                UARTMSP432E4_write
 .text.ringBufGet.isra.0
                0x0000286c       0x64 C:/ti/simplelink_msp432e4_sdk_4_20_00_12/source\ti/drivers/lib/drivers_msp432e4.am4fg(UARTMSP432E4.om4fg)
 .text.readTaskCallback
                0x000028d0       0xc8 C:/ti/simplelink_msp432e4_sdk_4_20_00_12/source\ti/drivers/lib/drivers_msp432e4.am4fg(UARTMSP432E4.om4fg)
 .text.readIsrTextCallback
                0x00002998       0x9c C:/ti/simplelink_msp432e4_sdk_4_20_00_12/source\ti/drivers/lib/drivers_msp432e4.am4fg(UARTMSP432E4.om4fg)
 .text.readIsrBinaryCallback
                0x00002a34       0x78 C:/ti/simplelink_msp432e4_sdk_4_20_00_12/source\ti/drivers/lib/drivers_msp432e4.am4fg(UARTMSP432E4.om4fg)
 .text.readTaskBlocking
                0x00002aac       0xb0 C:/ti/simplelink_msp432e4_sdk_4_20_00_12/source\ti/drivers/lib/drivers_msp432e4.am4fg(UARTMSP432E4.om4fg)
 .text.UARTMSP432E4_readPolling
                0x00002b5c       0xac C:/ti/simplelink_msp432e4_sdk_4_20_00_12/source\ti/drivers/lib/drivers_msp432e4.am4fg(UARTMSP432E4.om4fg)
                0x00002b5c                UARTMSP432E4_readPolling
 .text.RingBuf_construct
                0x00002c08       0x14 C:/ti/simplelink_msp432e4_sdk_4_20_00_12/source\ti/drivers/lib/drivers_msp432e4.am4fg(RingBuf.om4fg)
                0x00002c08                RingBuf_construct
 .text.RingBuf_get
                0x00002c1c       0x40 C:/ti/simplelink_msp432e4_sdk_4_20_00_12/source\ti/drivers/lib/drivers_msp432e4.am4fg(RingBuf.om4fg)
                0x00002c1c                RingBuf_get
 .text.RingBuf_isFull
                0x00002c5c       0x10 C:/ti/simplelink_msp432e4_sdk_4_20_00_12/source\ti/drivers/lib/drivers_msp432e4.am4fg(RingBuf.om4fg)
                0x00002c5c                RingBuf_isFull
 .text.RingBuf_peek
                0x00002c6c       0x1c C:/ti/simplelink_msp432e4_sdk_4_20_00_12/source\ti/drivers/lib/drivers_msp432e4.am4fg(RingBuf.om4fg)
                0x00002c6c                RingBuf_peek
 .text.RingBuf_put
                0x00002c88       0x48 C:/ti/simplelink_msp432e4_sdk_4_20_00_12/source\ti/drivers/lib/drivers_msp432e4.am4fg(RingBuf.om4fg)
                0x00002c88                RingBuf_put
 .text.ClockP_callbackFxn
                0x00002cd0       0x4a C:/Users/Ravonte/workspace_v10/freertos_builds_MSP_EXP432E401Y_release_gcc/Debug\libfreertos_builds_MSP_EXP432E401Y_release_gcc.a(ClockP_freertos.o)
                0x00002cd0                ClockP_callbackFxn
 *fill*         0x00002d1a        0x2 
 .text.ClockP_create
                0x00002d1c       0xb8 C:/Users/Ravonte/workspace_v10/freertos_builds_MSP_EXP432E401Y_release_gcc/Debug\libfreertos_builds_MSP_EXP432E401Y_release_gcc.a(ClockP_freertos.o)
                0x00002d1c                ClockP_create
 .text.ClockP_delete
                0x00002dd4       0x58 C:/Users/Ravonte/workspace_v10/freertos_builds_MSP_EXP432E401Y_release_gcc/Debug\libfreertos_builds_MSP_EXP432E401Y_release_gcc.a(ClockP_freertos.o)
                0x00002dd4                ClockP_delete
 .text.ClockP_getCpuFreq
                0x00002e2c       0x28 C:/Users/Ravonte/workspace_v10/freertos_builds_MSP_EXP432E401Y_release_gcc/Debug\libfreertos_builds_MSP_EXP432E401Y_release_gcc.a(ClockP_freertos.o)
                0x00002e2c                ClockP_getCpuFreq
 .text.ClockP_Params_init
                0x00002e54       0x26 C:/Users/Ravonte/workspace_v10/freertos_builds_MSP_EXP432E401Y_release_gcc/Debug\libfreertos_builds_MSP_EXP432E401Y_release_gcc.a(ClockP_freertos.o)
                0x00002e54                ClockP_Params_init
 .text.ClockP_setTimeout
                0x00002e7a       0x20 C:/Users/Ravonte/workspace_v10/freertos_builds_MSP_EXP432E401Y_release_gcc/Debug\libfreertos_builds_MSP_EXP432E401Y_release_gcc.a(ClockP_freertos.o)
                0x00002e7a                ClockP_setTimeout
 .text.ClockP_start
                0x00002e9a       0x2c C:/Users/Ravonte/workspace_v10/freertos_builds_MSP_EXP432E401Y_release_gcc/Debug\libfreertos_builds_MSP_EXP432E401Y_release_gcc.a(ClockP_freertos.o)
                0x00002e9a                ClockP_start
 *fill*         0x00002ec6        0x2 
 .text.ClockP_stop
                0x00002ec8       0x70 C:/Users/Ravonte/workspace_v10/freertos_builds_MSP_EXP432E401Y_release_gcc/Debug\libfreertos_builds_MSP_EXP432E401Y_release_gcc.a(ClockP_freertos.o)
                0x00002ec8                ClockP_stop
 .text.setClockObjTimeout
                0x00002f38       0x80 C:/Users/Ravonte/workspace_v10/freertos_builds_MSP_EXP432E401Y_release_gcc/Debug\libfreertos_builds_MSP_EXP432E401Y_release_gcc.a(ClockP_freertos.o)
 .text.HwiP_disable
                0x00002fb8       0x34 C:/Users/Ravonte/workspace_v10/freertos_builds_MSP_EXP432E401Y_release_gcc/Debug\libfreertos_builds_MSP_EXP432E401Y_release_gcc.a(HwiPMSP432E4_freertos.o)
                0x00002fb8                HwiP_disable
 .text.HwiP_restore
                0x00002fec       0x2c C:/Users/Ravonte/workspace_v10/freertos_builds_MSP_EXP432E401Y_release_gcc/Debug\libfreertos_builds_MSP_EXP432E401Y_release_gcc.a(HwiPMSP432E4_freertos.o)
                0x00002fec                HwiP_restore
 .text.HwiP_delete
                0x00003018       0x20 C:/Users/Ravonte/workspace_v10/freertos_builds_MSP_EXP432E401Y_release_gcc/Debug\libfreertos_builds_MSP_EXP432E401Y_release_gcc.a(HwiPMSP432E4_freertos.o)
                0x00003018                HwiP_delete
 .text.HwiP_disableInterrupt
                0x00003038       0x18 C:/Users/Ravonte/workspace_v10/freertos_builds_MSP_EXP432E401Y_release_gcc/Debug\libfreertos_builds_MSP_EXP432E401Y_release_gcc.a(HwiPMSP432E4_freertos.o)
                0x00003038                HwiP_disableInterrupt
 .text.HwiP_dispatch
                0x00003050       0x58 C:/Users/Ravonte/workspace_v10/freertos_builds_MSP_EXP432E401Y_release_gcc/Debug\libfreertos_builds_MSP_EXP432E401Y_release_gcc.a(HwiPMSP432E4_freertos.o)
                0x00003050                HwiP_dispatch
 .text.HwiP_enableInterrupt
                0x000030a8       0x18 C:/Users/Ravonte/workspace_v10/freertos_builds_MSP_EXP432E401Y_release_gcc/Debug\libfreertos_builds_MSP_EXP432E401Y_release_gcc.a(HwiPMSP432E4_freertos.o)
                0x000030a8                HwiP_enableInterrupt
 .text.HwiP_create
                0x000030c0       0x78 C:/Users/Ravonte/workspace_v10/freertos_builds_MSP_EXP432E401Y_release_gcc/Debug\libfreertos_builds_MSP_EXP432E401Y_release_gcc.a(HwiPMSP432E4_freertos.o)
                0x000030c0                HwiP_create
 .text.HwiP_inISR
                0x00003138       0x2c C:/Users/Ravonte/workspace_v10/freertos_builds_MSP_EXP432E401Y_release_gcc/Debug\libfreertos_builds_MSP_EXP432E401Y_release_gcc.a(HwiPMSP432E4_freertos.o)
                0x00003138                HwiP_inISR
 .text.HwiP_Params_init
                0x00003164       0x28 C:/Users/Ravonte/workspace_v10/freertos_builds_MSP_EXP432E401Y_release_gcc/Debug\libfreertos_builds_MSP_EXP432E401Y_release_gcc.a(HwiPMSP432E4_freertos.o)
                0x00003164                HwiP_Params_init
 .text.PowerMSP432E4_sleepPolicy
                0x0000318c       0x20 C:/Users/Ravonte/workspace_v10/freertos_builds_MSP_EXP432E401Y_release_gcc/Debug\libfreertos_builds_MSP_EXP432E401Y_release_gcc.a(PowerMSP432E4_freertos.o)
                0x0000318c                PowerMSP432E4_sleepPolicy
 .text.vPortSuppressTicksAndSleep
                0x000031ac       0x14 C:/Users/Ravonte/workspace_v10/freertos_builds_MSP_EXP432E401Y_release_gcc/Debug\libfreertos_builds_MSP_EXP432E401Y_release_gcc.a(PowerMSP432E4_freertos.o)
                0x000031ac                vPortSuppressTicksAndSleep
 .text.SemaphoreP_createBinary
                0x000031c0       0x3a C:/Users/Ravonte/workspace_v10/freertos_builds_MSP_EXP432E401Y_release_gcc/Debug\libfreertos_builds_MSP_EXP432E401Y_release_gcc.a(SemaphoreP_freertos.o)
                0x000031c0                SemaphoreP_createBinary
 .text.SemaphoreP_delete
                0x000031fa       0x16 C:/Users/Ravonte/workspace_v10/freertos_builds_MSP_EXP432E401Y_release_gcc/Debug\libfreertos_builds_MSP_EXP432E401Y_release_gcc.a(SemaphoreP_freertos.o)
                0x000031fa                SemaphoreP_delete
 .text.SemaphoreP_pend
                0x00003210       0x42 C:/Users/Ravonte/workspace_v10/freertos_builds_MSP_EXP432E401Y_release_gcc/Debug\libfreertos_builds_MSP_EXP432E401Y_release_gcc.a(SemaphoreP_freertos.o)
                0x00003210                SemaphoreP_pend
 .text.SemaphoreP_post
                0x00003252       0x3a C:/Users/Ravonte/workspace_v10/freertos_builds_MSP_EXP432E401Y_release_gcc/Debug\libfreertos_builds_MSP_EXP432E401Y_release_gcc.a(SemaphoreP_freertos.o)
                0x00003252                SemaphoreP_post
 .text.SystemP_vsnprintf
                0x0000328c       0x26 C:/Users/Ravonte/workspace_v10/freertos_builds_MSP_EXP432E401Y_release_gcc/Debug\libfreertos_builds_MSP_EXP432E401Y_release_gcc.a(SystemP_freertos.o)
                0x0000328c                SystemP_vsnprintf
 *fill*         0x000032b2        0x6 
 .text.doPrint  0x000032b8      0x4bc C:/Users/Ravonte/workspace_v10/freertos_builds_MSP_EXP432E401Y_release_gcc/Debug\libfreertos_builds_MSP_EXP432E401Y_release_gcc.a(SystemP_freertos.o)
 .text.formatNum
                0x00003774       0xb0 C:/Users/Ravonte/workspace_v10/freertos_builds_MSP_EXP432E401Y_release_gcc/Debug\libfreertos_builds_MSP_EXP432E401Y_release_gcc.a(SystemP_freertos.o)
 .text.putChar  0x00003824       0x3c C:/Users/Ravonte/workspace_v10/freertos_builds_MSP_EXP432E401Y_release_gcc/Debug\libfreertos_builds_MSP_EXP432E401Y_release_gcc.a(SystemP_freertos.o)
 .text.pvPortMalloc
                0x00003860      0x1c0 C:/Users/Ravonte/workspace_v10/freertos_builds_MSP_EXP432E401Y_release_gcc/Debug\libfreertos_builds_MSP_EXP432E401Y_release_gcc.a(heap_4.o)
                0x00003860                pvPortMalloc
 .text.vPortFree
                0x00003a20       0xc4 C:/Users/Ravonte/workspace_v10/freertos_builds_MSP_EXP432E401Y_release_gcc/Debug\libfreertos_builds_MSP_EXP432E401Y_release_gcc.a(heap_4.o)
                0x00003a20                vPortFree
 .text.prvHeapInit
                0x00003ae4       0xc4 C:/Users/Ravonte/workspace_v10/freertos_builds_MSP_EXP432E401Y_release_gcc/Debug\libfreertos_builds_MSP_EXP432E401Y_release_gcc.a(heap_4.o)
 .text.prvInsertBlockIntoFreeList
                0x00003ba8       0xb4 C:/Users/Ravonte/workspace_v10/freertos_builds_MSP_EXP432E401Y_release_gcc/Debug\libfreertos_builds_MSP_EXP432E401Y_release_gcc.a(heap_4.o)
 .text.xQueueGenericReset
                0x00003c5c       0xd0 C:/Users/Ravonte/workspace_v10/freertos_builds_MSP_EXP432E401Y_release_gcc/Debug\libfreertos_builds_MSP_EXP432E401Y_release_gcc.a(queue.o)
                0x00003c5c                xQueueGenericReset
 .text.xQueueGenericCreate
                0x00003d2c       0xbe C:/Users/Ravonte/workspace_v10/freertos_builds_MSP_EXP432E401Y_release_gcc/Debug\libfreertos_builds_MSP_EXP432E401Y_release_gcc.a(queue.o)
                0x00003d2c                xQueueGenericCreate
 .text.prvInitialiseNewQueue
                0x00003dea       0x46 C:/Users/Ravonte/workspace_v10/freertos_builds_MSP_EXP432E401Y_release_gcc/Debug\libfreertos_builds_MSP_EXP432E401Y_release_gcc.a(queue.o)
 .text.xQueueGenericSend
                0x00003e30      0x1fc C:/Users/Ravonte/workspace_v10/freertos_builds_MSP_EXP432E401Y_release_gcc/Debug\libfreertos_builds_MSP_EXP432E401Y_release_gcc.a(queue.o)
                0x00003e30                xQueueGenericSend
 .text.xQueueGenericSendFromISR
                0x0000402c      0x154 C:/Users/Ravonte/workspace_v10/freertos_builds_MSP_EXP432E401Y_release_gcc/Debug\libfreertos_builds_MSP_EXP432E401Y_release_gcc.a(queue.o)
                0x0000402c                xQueueGenericSendFromISR
 .text.xQueueGiveFromISR
                0x00004180      0x138 C:/Users/Ravonte/workspace_v10/freertos_builds_MSP_EXP432E401Y_release_gcc/Debug\libfreertos_builds_MSP_EXP432E401Y_release_gcc.a(queue.o)
                0x00004180                xQueueGiveFromISR
 .text.xQueueReceive
                0x000042b8      0x1c0 C:/Users/Ravonte/workspace_v10/freertos_builds_MSP_EXP432E401Y_release_gcc/Debug\libfreertos_builds_MSP_EXP432E401Y_release_gcc.a(queue.o)
                0x000042b8                xQueueReceive
 .text.xQueueSemaphoreTake
                0x00004478      0x218 C:/Users/Ravonte/workspace_v10/freertos_builds_MSP_EXP432E401Y_release_gcc/Debug\libfreertos_builds_MSP_EXP432E401Y_release_gcc.a(queue.o)
                0x00004478                xQueueSemaphoreTake
 .text.xQueueReceiveFromISR
                0x00004690      0x11e C:/Users/Ravonte/workspace_v10/freertos_builds_MSP_EXP432E401Y_release_gcc/Debug\libfreertos_builds_MSP_EXP432E401Y_release_gcc.a(queue.o)
                0x00004690                xQueueReceiveFromISR
 .text.vQueueDelete
                0x000047ae       0x36 C:/Users/Ravonte/workspace_v10/freertos_builds_MSP_EXP432E401Y_release_gcc/Debug\libfreertos_builds_MSP_EXP432E401Y_release_gcc.a(queue.o)
                0x000047ae                vQueueDelete
 .text.prvGetDisinheritPriorityAfterTimeout
                0x000047e4       0x30 C:/Users/Ravonte/workspace_v10/freertos_builds_MSP_EXP432E401Y_release_gcc/Debug\libfreertos_builds_MSP_EXP432E401Y_release_gcc.a(queue.o)
 .text.prvCopyDataToQueue
                0x00004814       0xd4 C:/Users/Ravonte/workspace_v10/freertos_builds_MSP_EXP432E401Y_release_gcc/Debug\libfreertos_builds_MSP_EXP432E401Y_release_gcc.a(queue.o)
 .text.prvCopyDataFromQueue
                0x000048e8       0x4c C:/Users/Ravonte/workspace_v10/freertos_builds_MSP_EXP432E401Y_release_gcc/Debug\libfreertos_builds_MSP_EXP432E401Y_release_gcc.a(queue.o)
 .text.prvUnlockQueue
                0x00004934       0xa4 C:/Users/Ravonte/workspace_v10/freertos_builds_MSP_EXP432E401Y_release_gcc/Debug\libfreertos_builds_MSP_EXP432E401Y_release_gcc.a(queue.o)
 .text.prvIsQueueEmpty
                0x000049d8       0x2c C:/Users/Ravonte/workspace_v10/freertos_builds_MSP_EXP432E401Y_release_gcc/Debug\libfreertos_builds_MSP_EXP432E401Y_release_gcc.a(queue.o)
 .text.prvIsQueueFull
                0x00004a04       0x30 C:/Users/Ravonte/workspace_v10/freertos_builds_MSP_EXP432E401Y_release_gcc/Debug\libfreertos_builds_MSP_EXP432E401Y_release_gcc.a(queue.o)
 .text.vQueueWaitForMessageRestricted
                0x00004a34       0x68 C:/Users/Ravonte/workspace_v10/freertos_builds_MSP_EXP432E401Y_release_gcc/Debug\libfreertos_builds_MSP_EXP432E401Y_release_gcc.a(queue.o)
                0x00004a34                vQueueWaitForMessageRestricted
 .text.xTaskCreate
                0x00004a9c       0x82 C:/Users/Ravonte/workspace_v10/freertos_builds_MSP_EXP432E401Y_release_gcc/Debug\libfreertos_builds_MSP_EXP432E401Y_release_gcc.a(tasks.o)
                0x00004a9c                xTaskCreate
 *fill*         0x00004b1e        0x2 
 .text.prvInitialiseNewTask
                0x00004b20      0x16c C:/Users/Ravonte/workspace_v10/freertos_builds_MSP_EXP432E401Y_release_gcc/Debug\libfreertos_builds_MSP_EXP432E401Y_release_gcc.a(tasks.o)
 .text.prvAddNewTaskToReadyList
                0x00004c8c       0xdc C:/Users/Ravonte/workspace_v10/freertos_builds_MSP_EXP432E401Y_release_gcc/Debug\libfreertos_builds_MSP_EXP432E401Y_release_gcc.a(tasks.o)
 .text.vTaskDelete
                0x00004d68      0x120 C:/Users/Ravonte/workspace_v10/freertos_builds_MSP_EXP432E401Y_release_gcc/Debug\libfreertos_builds_MSP_EXP432E401Y_release_gcc.a(tasks.o)
                0x00004d68                vTaskDelete
 .text.vTaskDelay
                0x00004e88       0x68 C:/Users/Ravonte/workspace_v10/freertos_builds_MSP_EXP432E401Y_release_gcc/Debug\libfreertos_builds_MSP_EXP432E401Y_release_gcc.a(tasks.o)
                0x00004e88                vTaskDelay
 .text.vTaskSuspend
                0x00004ef0      0x140 C:/Users/Ravonte/workspace_v10/freertos_builds_MSP_EXP432E401Y_release_gcc/Debug\libfreertos_builds_MSP_EXP432E401Y_release_gcc.a(tasks.o)
                0x00004ef0                vTaskSuspend
 .text.vTaskStartScheduler
                0x00005030       0xb8 C:/Users/Ravonte/workspace_v10/freertos_builds_MSP_EXP432E401Y_release_gcc/Debug\libfreertos_builds_MSP_EXP432E401Y_release_gcc.a(tasks.o)
                0x00005030                vTaskStartScheduler
 .text.vTaskSuspendAll
                0x000050e8       0x1c C:/Users/Ravonte/workspace_v10/freertos_builds_MSP_EXP432E401Y_release_gcc/Debug\libfreertos_builds_MSP_EXP432E401Y_release_gcc.a(tasks.o)
                0x000050e8                vTaskSuspendAll
 .text.prvGetExpectedIdleTime
                0x00005104       0x74 C:/Users/Ravonte/workspace_v10/freertos_builds_MSP_EXP432E401Y_release_gcc/Debug\libfreertos_builds_MSP_EXP432E401Y_release_gcc.a(tasks.o)
 .text.xTaskResumeAll
                0x00005178      0x138 C:/Users/Ravonte/workspace_v10/freertos_builds_MSP_EXP432E401Y_release_gcc/Debug\libfreertos_builds_MSP_EXP432E401Y_release_gcc.a(tasks.o)
                0x00005178                xTaskResumeAll
 .text.xTaskGetTickCount
                0x000052b0       0x20 C:/Users/Ravonte/workspace_v10/freertos_builds_MSP_EXP432E401Y_release_gcc/Debug\libfreertos_builds_MSP_EXP432E401Y_release_gcc.a(tasks.o)
                0x000052b0                xTaskGetTickCount
 .text.xTaskIncrementTick
                0x000052d0      0x154 C:/Users/Ravonte/workspace_v10/freertos_builds_MSP_EXP432E401Y_release_gcc/Debug\libfreertos_builds_MSP_EXP432E401Y_release_gcc.a(tasks.o)
                0x000052d0                xTaskIncrementTick
 .text.vTaskSetApplicationTaskTag
                0x00005424       0x38 C:/Users/Ravonte/workspace_v10/freertos_builds_MSP_EXP432E401Y_release_gcc/Debug\libfreertos_builds_MSP_EXP432E401Y_release_gcc.a(tasks.o)
                0x00005424                vTaskSetApplicationTaskTag
 .text.xTaskGetApplicationTaskTag
                0x0000545c       0x34 C:/Users/Ravonte/workspace_v10/freertos_builds_MSP_EXP432E401Y_release_gcc/Debug\libfreertos_builds_MSP_EXP432E401Y_release_gcc.a(tasks.o)
                0x0000545c                xTaskGetApplicationTaskTag
 .text.vTaskSwitchContext
                0x00005490      0x110 C:/Users/Ravonte/workspace_v10/freertos_builds_MSP_EXP432E401Y_release_gcc/Debug\libfreertos_builds_MSP_EXP432E401Y_release_gcc.a(tasks.o)
                0x00005490                vTaskSwitchContext
 .text.vTaskPlaceOnEventList
                0x000055a0       0x48 C:/Users/Ravonte/workspace_v10/freertos_builds_MSP_EXP432E401Y_release_gcc/Debug\libfreertos_builds_MSP_EXP432E401Y_release_gcc.a(tasks.o)
                0x000055a0                vTaskPlaceOnEventList
 .text.vTaskPlaceOnEventListRestricted
                0x000055e8       0x58 C:/Users/Ravonte/workspace_v10/freertos_builds_MSP_EXP432E401Y_release_gcc/Debug\libfreertos_builds_MSP_EXP432E401Y_release_gcc.a(tasks.o)
                0x000055e8                vTaskPlaceOnEventListRestricted
 .text.xTaskRemoveFromEventList
                0x00005640       0xc8 C:/Users/Ravonte/workspace_v10/freertos_builds_MSP_EXP432E401Y_release_gcc/Debug\libfreertos_builds_MSP_EXP432E401Y_release_gcc.a(tasks.o)
                0x00005640                xTaskRemoveFromEventList
 .text.vTaskInternalSetTimeOutState
                0x00005708       0x2c C:/Users/Ravonte/workspace_v10/freertos_builds_MSP_EXP432E401Y_release_gcc/Debug\libfreertos_builds_MSP_EXP432E401Y_release_gcc.a(tasks.o)
                0x00005708                vTaskInternalSetTimeOutState
 .text.xTaskCheckForTimeOut
                0x00005734       0xcc C:/Users/Ravonte/workspace_v10/freertos_builds_MSP_EXP432E401Y_release_gcc/Debug\libfreertos_builds_MSP_EXP432E401Y_release_gcc.a(tasks.o)
                0x00005734                xTaskCheckForTimeOut
 .text.vTaskMissedYield
                0x00005800       0x18 C:/Users/Ravonte/workspace_v10/freertos_builds_MSP_EXP432E401Y_release_gcc/Debug\libfreertos_builds_MSP_EXP432E401Y_release_gcc.a(tasks.o)
                0x00005800                vTaskMissedYield
 .text.prvIdleTask
                0x00005818       0x60 C:/Users/Ravonte/workspace_v10/freertos_builds_MSP_EXP432E401Y_release_gcc/Debug\libfreertos_builds_MSP_EXP432E401Y_release_gcc.a(tasks.o)
 .text.prvInitialiseTaskLists
                0x00005878       0x80 C:/Users/Ravonte/workspace_v10/freertos_builds_MSP_EXP432E401Y_release_gcc/Debug\libfreertos_builds_MSP_EXP432E401Y_release_gcc.a(tasks.o)
 .text.prvCheckTasksWaitingTermination
                0x000058f8       0x5c C:/Users/Ravonte/workspace_v10/freertos_builds_MSP_EXP432E401Y_release_gcc/Debug\libfreertos_builds_MSP_EXP432E401Y_release_gcc.a(tasks.o)
 .text.prvDeleteTCB
                0x00005954       0x2a C:/Users/Ravonte/workspace_v10/freertos_builds_MSP_EXP432E401Y_release_gcc/Debug\libfreertos_builds_MSP_EXP432E401Y_release_gcc.a(tasks.o)
 *fill*         0x0000597e        0x2 
 .text.prvResetNextTaskUnblockTime
                0x00005980       0x38 C:/Users/Ravonte/workspace_v10/freertos_builds_MSP_EXP432E401Y_release_gcc/Debug\libfreertos_builds_MSP_EXP432E401Y_release_gcc.a(tasks.o)
 .text.xTaskGetCurrentTaskHandle
                0x000059b8       0x20 C:/Users/Ravonte/workspace_v10/freertos_builds_MSP_EXP432E401Y_release_gcc/Debug\libfreertos_builds_MSP_EXP432E401Y_release_gcc.a(tasks.o)
                0x000059b8                xTaskGetCurrentTaskHandle
 .text.xTaskGetSchedulerState
                0x000059d8       0x3c C:/Users/Ravonte/workspace_v10/freertos_builds_MSP_EXP432E401Y_release_gcc/Debug\libfreertos_builds_MSP_EXP432E401Y_release_gcc.a(tasks.o)
                0x000059d8                xTaskGetSchedulerState
 .text.xTaskPriorityInherit
                0x00005a14       0xec C:/Users/Ravonte/workspace_v10/freertos_builds_MSP_EXP432E401Y_release_gcc/Debug\libfreertos_builds_MSP_EXP432E401Y_release_gcc.a(tasks.o)
                0x00005a14                xTaskPriorityInherit
 .text.xTaskPriorityDisinherit
                0x00005b00       0xf4 C:/Users/Ravonte/workspace_v10/freertos_builds_MSP_EXP432E401Y_release_gcc/Debug\libfreertos_builds_MSP_EXP432E401Y_release_gcc.a(tasks.o)
                0x00005b00                xTaskPriorityDisinherit
 .text.vTaskPriorityDisinheritAfterTimeout
                0x00005bf4      0x11c C:/Users/Ravonte/workspace_v10/freertos_builds_MSP_EXP432E401Y_release_gcc/Debug\libfreertos_builds_MSP_EXP432E401Y_release_gcc.a(tasks.o)
                0x00005bf4                vTaskPriorityDisinheritAfterTimeout
 .text.pvTaskIncrementMutexHeldCount
                0x00005d10       0x28 C:/Users/Ravonte/workspace_v10/freertos_builds_MSP_EXP432E401Y_release_gcc/Debug\libfreertos_builds_MSP_EXP432E401Y_release_gcc.a(tasks.o)
                0x00005d10                pvTaskIncrementMutexHeldCount
 .text.prvAddCurrentTaskToDelayedList
                0x00005d38       0xcc C:/Users/Ravonte/workspace_v10/freertos_builds_MSP_EXP432E401Y_release_gcc/Debug\libfreertos_builds_MSP_EXP432E401Y_release_gcc.a(tasks.o)
 .text.xTimerCreateTimerTask
                0x00005e04       0x64 C:/Users/Ravonte/workspace_v10/freertos_builds_MSP_EXP432E401Y_release_gcc/Debug\libfreertos_builds_MSP_EXP432E401Y_release_gcc.a(timers.o)
                0x00005e04                xTimerCreateTimerTask
 .text.xTimerCreate
                0x00005e68       0x42 C:/Users/Ravonte/workspace_v10/freertos_builds_MSP_EXP432E401Y_release_gcc/Debug\libfreertos_builds_MSP_EXP432E401Y_release_gcc.a(timers.o)
                0x00005e68                xTimerCreate
 .text.prvInitialiseNewTimer
                0x00005eaa       0x76 C:/Users/Ravonte/workspace_v10/freertos_builds_MSP_EXP432E401Y_release_gcc/Debug\libfreertos_builds_MSP_EXP432E401Y_release_gcc.a(timers.o)
 .text.xTimerGenericCommand
                0x00005f20       0x9c C:/Users/Ravonte/workspace_v10/freertos_builds_MSP_EXP432E401Y_release_gcc/Debug\libfreertos_builds_MSP_EXP432E401Y_release_gcc.a(timers.o)
                0x00005f20                xTimerGenericCommand
 .text.prvProcessExpiredTimer
                0x00005fbc       0x98 C:/Users/Ravonte/workspace_v10/freertos_builds_MSP_EXP432E401Y_release_gcc/Debug\libfreertos_builds_MSP_EXP432E401Y_release_gcc.a(timers.o)
 .text.prvTimerTask
                0x00006054       0x24 C:/Users/Ravonte/workspace_v10/freertos_builds_MSP_EXP432E401Y_release_gcc/Debug\libfreertos_builds_MSP_EXP432E401Y_release_gcc.a(timers.o)
 .text.prvProcessTimerOrBlockTask
                0x00006078       0x9c C:/Users/Ravonte/workspace_v10/freertos_builds_MSP_EXP432E401Y_release_gcc/Debug\libfreertos_builds_MSP_EXP432E401Y_release_gcc.a(timers.o)
 .text.prvGetNextExpireTime
                0x00006114       0x48 C:/Users/Ravonte/workspace_v10/freertos_builds_MSP_EXP432E401Y_release_gcc/Debug\libfreertos_builds_MSP_EXP432E401Y_release_gcc.a(timers.o)
 .text.prvSampleTimeNow
                0x0000615c       0x40 C:/Users/Ravonte/workspace_v10/freertos_builds_MSP_EXP432E401Y_release_gcc/Debug\libfreertos_builds_MSP_EXP432E401Y_release_gcc.a(timers.o)
 .text.prvInsertTimerInActiveList
                0x0000619c       0x84 C:/Users/Ravonte/workspace_v10/freertos_builds_MSP_EXP432E401Y_release_gcc/Debug\libfreertos_builds_MSP_EXP432E401Y_release_gcc.a(timers.o)
 .text.prvProcessReceivedCommands
                0x00006220      0x18c C:/Users/Ravonte/workspace_v10/freertos_builds_MSP_EXP432E401Y_release_gcc/Debug\libfreertos_builds_MSP_EXP432E401Y_release_gcc.a(timers.o)
 .text.prvSwitchTimerLists
                0x000063ac       0xc8 C:/Users/Ravonte/workspace_v10/freertos_builds_MSP_EXP432E401Y_release_gcc/Debug\libfreertos_builds_MSP_EXP432E401Y_release_gcc.a(timers.o)
 .text.prvCheckForValidListAndQueue
                0x00006474       0x54 C:/Users/Ravonte/workspace_v10/freertos_builds_MSP_EXP432E401Y_release_gcc/Debug\libfreertos_builds_MSP_EXP432E401Y_release_gcc.a(timers.o)
 .text.pvTimerGetTimerID
                0x000064c8       0x40 C:/Users/Ravonte/workspace_v10/freertos_builds_MSP_EXP432E401Y_release_gcc/Debug\libfreertos_builds_MSP_EXP432E401Y_release_gcc.a(timers.o)
                0x000064c8                pvTimerGetTimerID
 .text.pxPortInitialiseStack
                0x00006508       0x68 C:/Users/Ravonte/workspace_v10/freertos_builds_MSP_EXP432E401Y_release_gcc/Debug\libfreertos_builds_MSP_EXP432E401Y_release_gcc.a(port.o)
                0x00006508                pxPortInitialiseStack
 .text.prvTaskExitError
                0x00006570       0x58 C:/Users/Ravonte/workspace_v10/freertos_builds_MSP_EXP432E401Y_release_gcc/Debug\libfreertos_builds_MSP_EXP432E401Y_release_gcc.a(port.o)
 *fill*         0x000065c8        0x8 
 .text.vPortSVCHandler
                0x000065d0       0x28 C:/Users/Ravonte/workspace_v10/freertos_builds_MSP_EXP432E401Y_release_gcc/Debug\libfreertos_builds_MSP_EXP432E401Y_release_gcc.a(port.o)
                0x000065d0                vPortSVCHandler
 .text.prvPortStartFirstTask
                0x000065f8       0x2c C:/Users/Ravonte/workspace_v10/freertos_builds_MSP_EXP432E401Y_release_gcc/Debug\libfreertos_builds_MSP_EXP432E401Y_release_gcc.a(port.o)
 .text.xPortStartScheduler
                0x00006624      0x144 C:/Users/Ravonte/workspace_v10/freertos_builds_MSP_EXP432E401Y_release_gcc/Debug\libfreertos_builds_MSP_EXP432E401Y_release_gcc.a(port.o)
                0x00006624                xPortStartScheduler
 .text.vPortEnterCritical
                0x00006768       0x60 C:/Users/Ravonte/workspace_v10/freertos_builds_MSP_EXP432E401Y_release_gcc/Debug\libfreertos_builds_MSP_EXP432E401Y_release_gcc.a(port.o)
                0x00006768                vPortEnterCritical
 .text.vPortExitCritical
                0x000067c8       0x54 C:/Users/Ravonte/workspace_v10/freertos_builds_MSP_EXP432E401Y_release_gcc/Debug\libfreertos_builds_MSP_EXP432E401Y_release_gcc.a(port.o)
                0x000067c8                vPortExitCritical
 *fill*         0x0000681c        0x4 
 .text.xPortPendSVHandler
                0x00006820       0x68 C:/Users/Ravonte/workspace_v10/freertos_builds_MSP_EXP432E401Y_release_gcc/Debug\libfreertos_builds_MSP_EXP432E401Y_release_gcc.a(port.o)
                0x00006820                xPortPendSVHandler
 .text.xPortSysTickHandler
                0x00006888       0x44 C:/Users/Ravonte/workspace_v10/freertos_builds_MSP_EXP432E401Y_release_gcc/Debug\libfreertos_builds_MSP_EXP432E401Y_release_gcc.a(port.o)
                0x00006888                xPortSysTickHandler
 .text.vPortSetupTimerInterrupt
                0x000068cc       0x64 C:/Users/Ravonte/workspace_v10/freertos_builds_MSP_EXP432E401Y_release_gcc/Debug\libfreertos_builds_MSP_EXP432E401Y_release_gcc.a(port.o)
                0x000068cc                vPortSetupTimerInterrupt
 .text.vPortEnableVFP
                0x00006930       0x18 C:/Users/Ravonte/workspace_v10/freertos_builds_MSP_EXP432E401Y_release_gcc/Debug\libfreertos_builds_MSP_EXP432E401Y_release_gcc.a(port.o)
 .text.vPortValidateInterruptPriority
                0x00006948       0x80 C:/Users/Ravonte/workspace_v10/freertos_builds_MSP_EXP432E401Y_release_gcc/Debug\libfreertos_builds_MSP_EXP432E401Y_release_gcc.a(port.o)
                0x00006948                vPortValidateInterruptPriority
 .text.localProgramStart
                0x000069c8       0xbc C:/Users/Ravonte/workspace_v10/freertos_builds_MSP_EXP432E401Y_release_gcc/Debug\libfreertos_builds_MSP_EXP432E401Y_release_gcc.a(startup_msp432e4_gcc.o)
                0x000069c8                localProgramStart
 .text.resetISR
                0x00006a84       0x12 C:/Users/Ravonte/workspace_v10/freertos_builds_MSP_EXP432E401Y_release_gcc/Debug\libfreertos_builds_MSP_EXP432E401Y_release_gcc.a(startup_msp432e4_gcc.o)
                0x00006a84                resetISR
 .text.nmiISR   0x00006a96        0x6 C:/Users/Ravonte/workspace_v10/freertos_builds_MSP_EXP432E401Y_release_gcc/Debug\libfreertos_builds_MSP_EXP432E401Y_release_gcc.a(startup_msp432e4_gcc.o)
 .text.faultISR
                0x00006a9c        0x6 C:/Users/Ravonte/workspace_v10/freertos_builds_MSP_EXP432E401Y_release_gcc/Debug\libfreertos_builds_MSP_EXP432E401Y_release_gcc.a(startup_msp432e4_gcc.o)
 .text.busFaultHandler
                0x00006aa2        0x6 C:/Users/Ravonte/workspace_v10/freertos_builds_MSP_EXP432E401Y_release_gcc/Debug\libfreertos_builds_MSP_EXP432E401Y_release_gcc.a(startup_msp432e4_gcc.o)
 .text.defaultHandler
                0x00006aa8        0x6 C:/Users/Ravonte/workspace_v10/freertos_builds_MSP_EXP432E401Y_release_gcc/Debug\libfreertos_builds_MSP_EXP432E401Y_release_gcc.a(startup_msp432e4_gcc.o)
 .text._fini    0x00006aae        0xe C:/Users/Ravonte/workspace_v10/freertos_builds_MSP_EXP432E401Y_release_gcc/Debug\libfreertos_builds_MSP_EXP432E401Y_release_gcc.a(startup_msp432e4_gcc.o)
                0x00006aae                _fini
 .text.pthread_attr_init
                0x00006abc       0x28 C:/Users/Ravonte/workspace_v10/freertos_builds_MSP_EXP432E401Y_release_gcc/Debug\libfreertos_builds_MSP_EXP432E401Y_release_gcc.a(pthread.o)
                0x00006abc                pthread_attr_init
 .text.pthread_attr_setdetachstate
                0x00006ae4       0x2e C:/Users/Ravonte/workspace_v10/freertos_builds_MSP_EXP432E401Y_release_gcc/Debug\libfreertos_builds_MSP_EXP432E401Y_release_gcc.a(pthread.o)
                0x00006ae4                pthread_attr_setdetachstate
 .text.pthread_attr_setschedparam
                0x00006b12       0x34 C:/Users/Ravonte/workspace_v10/freertos_builds_MSP_EXP432E401Y_release_gcc/Debug\libfreertos_builds_MSP_EXP432E401Y_release_gcc.a(pthread.o)
                0x00006b12                pthread_attr_setschedparam
 .text.pthread_attr_setstacksize
                0x00006b46       0x1e C:/Users/Ravonte/workspace_v10/freertos_builds_MSP_EXP432E401Y_release_gcc/Debug\libfreertos_builds_MSP_EXP432E401Y_release_gcc.a(pthread.o)
                0x00006b46                pthread_attr_setstacksize
 .text.pthread_create
                0x00006b64      0x14c C:/Users/Ravonte/workspace_v10/freertos_builds_MSP_EXP432E401Y_release_gcc/Debug\libfreertos_builds_MSP_EXP432E401Y_release_gcc.a(pthread.o)
                0x00006b64                pthread_create
 .text.pthread_exit
                0x00006cb0       0x74 C:/Users/Ravonte/workspace_v10/freertos_builds_MSP_EXP432E401Y_release_gcc/Debug\libfreertos_builds_MSP_EXP432E401Y_release_gcc.a(pthread.o)
                0x00006cb0                pthread_exit
 .text.pthread_self
                0x00006d24       0x1e C:/Users/Ravonte/workspace_v10/freertos_builds_MSP_EXP432E401Y_release_gcc/Debug\libfreertos_builds_MSP_EXP432E401Y_release_gcc.a(pthread.o)
                0x00006d24                pthread_self
 .text.pthread_setcancelstate
                0x00006d42       0x4e C:/Users/Ravonte/workspace_v10/freertos_builds_MSP_EXP432E401Y_release_gcc/Debug\libfreertos_builds_MSP_EXP432E401Y_release_gcc.a(pthread.o)
                0x00006d42                pthread_setcancelstate
 .text._pthread_cleanup_pop
                0x00006d90       0x32 C:/Users/Ravonte/workspace_v10/freertos_builds_MSP_EXP432E401Y_release_gcc/Debug\libfreertos_builds_MSP_EXP432E401Y_release_gcc.a(pthread.o)
                0x00006d90                _pthread_cleanup_pop
 .text._pthread_runStub
                0x00006dc2       0x28 C:/Users/Ravonte/workspace_v10/freertos_builds_MSP_EXP432E401Y_release_gcc/Debug\libfreertos_builds_MSP_EXP432E401Y_release_gcc.a(pthread.o)
 .text.removeThreadKeys
                0x00006dea       0x86 C:/Users/Ravonte/workspace_v10/freertos_builds_MSP_EXP432E401Y_release_gcc/Debug\libfreertos_builds_MSP_EXP432E401Y_release_gcc.a(pthread.o)
 .text.sleep    0x00006e70       0x50 C:/Users/Ravonte/workspace_v10/freertos_builds_MSP_EXP432E401Y_release_gcc/Debug\libfreertos_builds_MSP_EXP432E401Y_release_gcc.a(sleep.o)
                0x00006e70                sleep
 .text.vListInitialise
                0x00006ec0       0x40 C:/Users/Ravonte/workspace_v10/freertos_builds_MSP_EXP432E401Y_release_gcc/Debug\libfreertos_builds_MSP_EXP432E401Y_release_gcc.a(list.o)
                0x00006ec0                vListInitialise
 .text.vListInitialiseItem
                0x00006f00       0x1a C:/Users/Ravonte/workspace_v10/freertos_builds_MSP_EXP432E401Y_release_gcc/Debug\libfreertos_builds_MSP_EXP432E401Y_release_gcc.a(list.o)
                0x00006f00                vListInitialiseItem
 .text.vListInsertEnd
                0x00006f1a       0x48 C:/Users/Ravonte/workspace_v10/freertos_builds_MSP_EXP432E401Y_release_gcc/Debug\libfreertos_builds_MSP_EXP432E401Y_release_gcc.a(list.o)
                0x00006f1a                vListInsertEnd
 .text.vListInsert
                0x00006f62       0x72 C:/Users/Ravonte/workspace_v10/freertos_builds_MSP_EXP432E401Y_release_gcc/Debug\libfreertos_builds_MSP_EXP432E401Y_release_gcc.a(list.o)
                0x00006f62                vListInsert
 .text.uxListRemove
                0x00006fd4       0x54 C:/Users/Ravonte/workspace_v10/freertos_builds_MSP_EXP432E401Y_release_gcc/Debug\libfreertos_builds_MSP_EXP432E401Y_release_gcc.a(list.o)
                0x00006fd4                uxListRemove
 .text.FPUEnable
                0x00007028       0x20 C:/ti/simplelink_msp432e4_sdk_4_20_00_12/source\ti/devices/msp432e4/driverlib/lib/gcc/m4f/msp432e4_driverlib.a(fpu.o)
                0x00007028                FPUEnable
 .text.GPIODirModeSet
                0x00007048       0x76 C:/ti/simplelink_msp432e4_sdk_4_20_00_12/source\ti/devices/msp432e4/driverlib/lib/gcc/m4f/msp432e4_driverlib.a(gpio.o)
                0x00007048                GPIODirModeSet
 .text.GPIOIntTypeSet
                0x000070be       0xd0 C:/ti/simplelink_msp432e4_sdk_4_20_00_12/source\ti/devices/msp432e4/driverlib/lib/gcc/m4f/msp432e4_driverlib.a(gpio.o)
                0x000070be                GPIOIntTypeSet
 .text.GPIOPadConfigSet
                0x0000718e      0x2a4 C:/ti/simplelink_msp432e4_sdk_4_20_00_12/source\ti/devices/msp432e4/driverlib/lib/gcc/m4f/msp432e4_driverlib.a(gpio.o)
                0x0000718e                GPIOPadConfigSet
 .text.GPIOIntStatus
                0x00007432       0x30 C:/ti/simplelink_msp432e4_sdk_4_20_00_12/source\ti/devices/msp432e4/driverlib/lib/gcc/m4f/msp432e4_driverlib.a(gpio.o)
                0x00007432                GPIOIntStatus
 .text.GPIOIntClear
                0x00007462       0x22 C:/ti/simplelink_msp432e4_sdk_4_20_00_12/source\ti/devices/msp432e4/driverlib/lib/gcc/m4f/msp432e4_driverlib.a(gpio.o)
                0x00007462                GPIOIntClear
 .text.GPIOPinWrite
                0x00007484       0x2c C:/ti/simplelink_msp432e4_sdk_4_20_00_12/source\ti/devices/msp432e4/driverlib/lib/gcc/m4f/msp432e4_driverlib.a(gpio.o)
                0x00007484                GPIOPinWrite
 .text.GPIOPinTypeI2C
                0x000074b0       0x2c C:/ti/simplelink_msp432e4_sdk_4_20_00_12/source\ti/devices/msp432e4/driverlib/lib/gcc/m4f/msp432e4_driverlib.a(gpio.o)
                0x000074b0                GPIOPinTypeI2C
 .text.GPIOPinTypeI2CSCL
                0x000074dc       0x2c C:/ti/simplelink_msp432e4_sdk_4_20_00_12/source\ti/devices/msp432e4/driverlib/lib/gcc/m4f/msp432e4_driverlib.a(gpio.o)
                0x000074dc                GPIOPinTypeI2CSCL
 .text.GPIOPinTypeUART
                0x00007508       0x2c C:/ti/simplelink_msp432e4_sdk_4_20_00_12/source\ti/devices/msp432e4/driverlib/lib/gcc/m4f/msp432e4_driverlib.a(gpio.o)
                0x00007508                GPIOPinTypeUART
 .text.GPIOPinConfigure
                0x00007534       0x5c C:/ti/simplelink_msp432e4_sdk_4_20_00_12/source\ti/devices/msp432e4/driverlib/lib/gcc/m4f/msp432e4_driverlib.a(gpio.o)
                0x00007534                GPIOPinConfigure
 .text.I2CMasterInitExpClk
                0x00007590       0x9c C:/ti/simplelink_msp432e4_sdk_4_20_00_12/source\ti/devices/msp432e4/driverlib/lib/gcc/m4f/msp432e4_driverlib.a(i2c.o)
                0x00007590                I2CMasterInitExpClk
 .text.I2CMasterEnable
                0x0000762c       0x24 C:/ti/simplelink_msp432e4_sdk_4_20_00_12/source\ti/devices/msp432e4/driverlib/lib/gcc/m4f/msp432e4_driverlib.a(i2c.o)
                0x0000762c                I2CMasterEnable
 .text.I2CMasterDisable
                0x00007650       0x24 C:/ti/simplelink_msp432e4_sdk_4_20_00_12/source\ti/devices/msp432e4/driverlib/lib/gcc/m4f/msp432e4_driverlib.a(i2c.o)
                0x00007650                I2CMasterDisable
 .text.I2CMasterIntEnableEx
                0x00007674       0x28 C:/ti/simplelink_msp432e4_sdk_4_20_00_12/source\ti/devices/msp432e4/driverlib/lib/gcc/m4f/msp432e4_driverlib.a(i2c.o)
                0x00007674                I2CMasterIntEnableEx
 .text.I2CMasterIntDisableEx
                0x0000769c       0x28 C:/ti/simplelink_msp432e4_sdk_4_20_00_12/source\ti/devices/msp432e4/driverlib/lib/gcc/m4f/msp432e4_driverlib.a(i2c.o)
                0x0000769c                I2CMasterIntDisableEx
 .text.I2CMasterIntStatusEx
                0x000076c4       0x2c C:/ti/simplelink_msp432e4_sdk_4_20_00_12/source\ti/devices/msp432e4/driverlib/lib/gcc/m4f/msp432e4_driverlib.a(i2c.o)
                0x000076c4                I2CMasterIntStatusEx
 .text.I2CMasterIntClearEx
                0x000076f0       0x20 C:/ti/simplelink_msp432e4_sdk_4_20_00_12/source\ti/devices/msp432e4/driverlib/lib/gcc/m4f/msp432e4_driverlib.a(i2c.o)
                0x000076f0                I2CMasterIntClearEx
 .text.I2CMasterSlaveAddrSet
                0x00007710       0x28 C:/ti/simplelink_msp432e4_sdk_4_20_00_12/source\ti/devices/msp432e4/driverlib/lib/gcc/m4f/msp432e4_driverlib.a(i2c.o)
                0x00007710                I2CMasterSlaveAddrSet
 .text.I2CMasterBusBusy
                0x00007738       0x28 C:/ti/simplelink_msp432e4_sdk_4_20_00_12/source\ti/devices/msp432e4/driverlib/lib/gcc/m4f/msp432e4_driverlib.a(i2c.o)
                0x00007738                I2CMasterBusBusy
 .text.I2CMasterControl
                0x00007760       0x20 C:/ti/simplelink_msp432e4_sdk_4_20_00_12/source\ti/devices/msp432e4/driverlib/lib/gcc/m4f/msp432e4_driverlib.a(i2c.o)
                0x00007760                I2CMasterControl
 .text.I2CTxFIFOConfigSet
                0x00007780       0x40 C:/ti/simplelink_msp432e4_sdk_4_20_00_12/source\ti/devices/msp432e4/driverlib/lib/gcc/m4f/msp432e4_driverlib.a(i2c.o)
                0x00007780                I2CTxFIFOConfigSet
 .text.I2CTxFIFOFlush
                0x000077c0       0x28 C:/ti/simplelink_msp432e4_sdk_4_20_00_12/source\ti/devices/msp432e4/driverlib/lib/gcc/m4f/msp432e4_driverlib.a(i2c.o)
                0x000077c0                I2CTxFIFOFlush
 .text.I2CRxFIFOConfigSet
                0x000077e8       0x40 C:/ti/simplelink_msp432e4_sdk_4_20_00_12/source\ti/devices/msp432e4/driverlib/lib/gcc/m4f/msp432e4_driverlib.a(i2c.o)
                0x000077e8                I2CRxFIFOConfigSet
 .text.I2CRxFIFOFlush
                0x00007828       0x28 C:/ti/simplelink_msp432e4_sdk_4_20_00_12/source\ti/devices/msp432e4/driverlib/lib/gcc/m4f/msp432e4_driverlib.a(i2c.o)
                0x00007828                I2CRxFIFOFlush
 .text.I2CFIFOStatus
                0x00007850       0x1c C:/ti/simplelink_msp432e4_sdk_4_20_00_12/source\ti/devices/msp432e4/driverlib/lib/gcc/m4f/msp432e4_driverlib.a(i2c.o)
                0x00007850                I2CFIFOStatus
 .text.I2CFIFODataPutNonBlocking
                0x0000786c       0x3a C:/ti/simplelink_msp432e4_sdk_4_20_00_12/source\ti/devices/msp432e4/driverlib/lib/gcc/m4f/msp432e4_driverlib.a(i2c.o)
                0x0000786c                I2CFIFODataPutNonBlocking
 .text.I2CFIFODataGetNonBlocking
                0x000078a6       0x3a C:/ti/simplelink_msp432e4_sdk_4_20_00_12/source\ti/devices/msp432e4/driverlib/lib/gcc/m4f/msp432e4_driverlib.a(i2c.o)
                0x000078a6                I2CFIFODataGetNonBlocking
 .text.I2CMasterBurstLengthSet
                0x000078e0       0x22 C:/ti/simplelink_msp432e4_sdk_4_20_00_12/source\ti/devices/msp432e4/driverlib/lib/gcc/m4f/msp432e4_driverlib.a(i2c.o)
                0x000078e0                I2CMasterBurstLengthSet
 .text._IntDefaultHandler
                0x00007902        0x6 C:/ti/simplelink_msp432e4_sdk_4_20_00_12/source\ti/devices/msp432e4/driverlib/lib/gcc/m4f/msp432e4_driverlib.a(interrupt.o)
 .text.IntRegister
                0x00007908       0x64 C:/ti/simplelink_msp432e4_sdk_4_20_00_12/source\ti/devices/msp432e4/driverlib/lib/gcc/m4f/msp432e4_driverlib.a(interrupt.o)
                0x00007908                IntRegister
 .text.IntUnregister
                0x0000796c       0x28 C:/ti/simplelink_msp432e4_sdk_4_20_00_12/source\ti/devices/msp432e4/driverlib/lib/gcc/m4f/msp432e4_driverlib.a(interrupt.o)
                0x0000796c                IntUnregister
 .text.IntPrioritySet
                0x00007994       0x68 C:/ti/simplelink_msp432e4_sdk_4_20_00_12/source\ti/devices/msp432e4/driverlib/lib/gcc/m4f/msp432e4_driverlib.a(interrupt.o)
                0x00007994                IntPrioritySet
 .text.IntEnable
                0x000079fc       0x94 C:/ti/simplelink_msp432e4_sdk_4_20_00_12/source\ti/devices/msp432e4/driverlib/lib/gcc/m4f/msp432e4_driverlib.a(interrupt.o)
                0x000079fc                IntEnable
 .text.IntDisable
                0x00007a90       0x94 C:/ti/simplelink_msp432e4_sdk_4_20_00_12/source\ti/devices/msp432e4/driverlib/lib/gcc/m4f/msp432e4_driverlib.a(interrupt.o)
                0x00007a90                IntDisable
 .text._SysCtlMemTimingGet
                0x00007b24       0x48 C:/ti/simplelink_msp432e4_sdk_4_20_00_12/source\ti/devices/msp432e4/driverlib/lib/gcc/m4f/msp432e4_driverlib.a(sysctl.o)
 .text._SysCtlFrequencyGet
                0x00007b6c       0x9c C:/ti/simplelink_msp432e4_sdk_4_20_00_12/source\ti/devices/msp432e4/driverlib/lib/gcc/m4f/msp432e4_driverlib.a(sysctl.o)
 .text.SysCtlPeripheralPresent
                0x00007c08       0x58 C:/ti/simplelink_msp432e4_sdk_4_20_00_12/source\ti/devices/msp432e4/driverlib/lib/gcc/m4f/msp432e4_driverlib.a(sysctl.o)
                0x00007c08                SysCtlPeripheralPresent
 .text.SysCtlPeripheralReady
                0x00007c60       0x58 C:/ti/simplelink_msp432e4_sdk_4_20_00_12/source\ti/devices/msp432e4/driverlib/lib/gcc/m4f/msp432e4_driverlib.a(sysctl.o)
                0x00007c60                SysCtlPeripheralReady
 .text.SysCtlPeripheralPowerOn
                0x00007cb8       0x50 C:/ti/simplelink_msp432e4_sdk_4_20_00_12/source\ti/devices/msp432e4/driverlib/lib/gcc/m4f/msp432e4_driverlib.a(sysctl.o)
                0x00007cb8                SysCtlPeripheralPowerOn
 .text.SysCtlPeripheralPowerOff
                0x00007d08       0x50 C:/ti/simplelink_msp432e4_sdk_4_20_00_12/source\ti/devices/msp432e4/driverlib/lib/gcc/m4f/msp432e4_driverlib.a(sysctl.o)
                0x00007d08                SysCtlPeripheralPowerOff
 .text.SysCtlPeripheralReset
                0x00007d58       0x9c C:/ti/simplelink_msp432e4_sdk_4_20_00_12/source\ti/devices/msp432e4/driverlib/lib/gcc/m4f/msp432e4_driverlib.a(sysctl.o)
                0x00007d58                SysCtlPeripheralReset
 .text.SysCtlPeripheralEnable
                0x00007df4       0x50 C:/ti/simplelink_msp432e4_sdk_4_20_00_12/source\ti/devices/msp432e4/driverlib/lib/gcc/m4f/msp432e4_driverlib.a(sysctl.o)
                0x00007df4                SysCtlPeripheralEnable
 .text.SysCtlPeripheralDisable
                0x00007e44       0x50 C:/ti/simplelink_msp432e4_sdk_4_20_00_12/source\ti/devices/msp432e4/driverlib/lib/gcc/m4f/msp432e4_driverlib.a(sysctl.o)
                0x00007e44                SysCtlPeripheralDisable
 .text.SysCtlPeripheralSleepEnable
                0x00007e94       0x50 C:/ti/simplelink_msp432e4_sdk_4_20_00_12/source\ti/devices/msp432e4/driverlib/lib/gcc/m4f/msp432e4_driverlib.a(sysctl.o)
                0x00007e94                SysCtlPeripheralSleepEnable
 .text.SysCtlPeripheralSleepDisable
                0x00007ee4       0x50 C:/ti/simplelink_msp432e4_sdk_4_20_00_12/source\ti/devices/msp432e4/driverlib/lib/gcc/m4f/msp432e4_driverlib.a(sysctl.o)
                0x00007ee4                SysCtlPeripheralSleepDisable
 .text.SysCtlPeripheralClockGating
                0x00007f34       0x3c C:/ti/simplelink_msp432e4_sdk_4_20_00_12/source\ti/devices/msp432e4/driverlib/lib/gcc/m4f/msp432e4_driverlib.a(sysctl.o)
                0x00007f34                SysCtlPeripheralClockGating
 .text.SysCtlClockFreqSet
                0x00007f70      0x32c C:/ti/simplelink_msp432e4_sdk_4_20_00_12/source\ti/devices/msp432e4/driverlib/lib/gcc/m4f/msp432e4_driverlib.a(sysctl.o)
                0x00007f70                SysCtlClockFreqSet
 .text.UARTFIFOLevelSet
                0x0000829c       0x26 C:/ti/simplelink_msp432e4_sdk_4_20_00_12/source\ti/devices/msp432e4/driverlib/lib/gcc/m4f/msp432e4_driverlib.a(uart.o)
                0x0000829c                UARTFIFOLevelSet
 .text.UARTConfigSetExpClk
                0x000082c2       0x92 C:/ti/simplelink_msp432e4_sdk_4_20_00_12/source\ti/devices/msp432e4/driverlib/lib/gcc/m4f/msp432e4_driverlib.a(uart.o)
                0x000082c2                UARTConfigSetExpClk
 .text.UARTEnable
                0x00008354       0x38 C:/ti/simplelink_msp432e4_sdk_4_20_00_12/source\ti/devices/msp432e4/driverlib/lib/gcc/m4f/msp432e4_driverlib.a(uart.o)
                0x00008354                UARTEnable
 .text.UARTDisable
                0x0000838c       0x48 C:/ti/simplelink_msp432e4_sdk_4_20_00_12/source\ti/devices/msp432e4/driverlib/lib/gcc/m4f/msp432e4_driverlib.a(uart.o)
                0x0000838c                UARTDisable
 .text.UARTFlowControlSet
                0x000083d4       0x2c C:/ti/simplelink_msp432e4_sdk_4_20_00_12/source\ti/devices/msp432e4/driverlib/lib/gcc/m4f/msp432e4_driverlib.a(uart.o)
                0x000083d4                UARTFlowControlSet
 .text.UARTTxIntModeSet
                0x00008400       0x2c C:/ti/simplelink_msp432e4_sdk_4_20_00_12/source\ti/devices/msp432e4/driverlib/lib/gcc/m4f/msp432e4_driverlib.a(uart.o)
                0x00008400                UARTTxIntModeSet
 .text.UARTCharsAvail
                0x0000842c       0x28 C:/ti/simplelink_msp432e4_sdk_4_20_00_12/source\ti/devices/msp432e4/driverlib/lib/gcc/m4f/msp432e4_driverlib.a(uart.o)
                0x0000842c                UARTCharsAvail
 .text.UARTCharGetNonBlocking
                0x00008454       0x2c C:/ti/simplelink_msp432e4_sdk_4_20_00_12/source\ti/devices/msp432e4/driverlib/lib/gcc/m4f/msp432e4_driverlib.a(uart.o)
                0x00008454                UARTCharGetNonBlocking
 .text.UARTCharGet
                0x00008480       0x28 C:/ti/simplelink_msp432e4_sdk_4_20_00_12/source\ti/devices/msp432e4/driverlib/lib/gcc/m4f/msp432e4_driverlib.a(uart.o)
                0x00008480                UARTCharGet
 .text.UARTCharPutNonBlocking
                0x000084a8       0x32 C:/ti/simplelink_msp432e4_sdk_4_20_00_12/source\ti/devices/msp432e4/driverlib/lib/gcc/m4f/msp432e4_driverlib.a(uart.o)
                0x000084a8                UARTCharPutNonBlocking
 .text.UARTCharPut
                0x000084da       0x2e C:/ti/simplelink_msp432e4_sdk_4_20_00_12/source\ti/devices/msp432e4/driverlib/lib/gcc/m4f/msp432e4_driverlib.a(uart.o)
                0x000084da                UARTCharPut
 .text.UARTBusy
                0x00008508       0x28 C:/ti/simplelink_msp432e4_sdk_4_20_00_12/source\ti/devices/msp432e4/driverlib/lib/gcc/m4f/msp432e4_driverlib.a(uart.o)
                0x00008508                UARTBusy
 .text.UARTIntEnable
                0x00008530       0x28 C:/ti/simplelink_msp432e4_sdk_4_20_00_12/source\ti/devices/msp432e4/driverlib/lib/gcc/m4f/msp432e4_driverlib.a(uart.o)
                0x00008530                UARTIntEnable
 .text.UARTIntDisable
                0x00008558       0x28 C:/ti/simplelink_msp432e4_sdk_4_20_00_12/source\ti/devices/msp432e4/driverlib/lib/gcc/m4f/msp432e4_driverlib.a(uart.o)
                0x00008558                UARTIntDisable
 .text.UARTIntStatus
                0x00008580       0x2c C:/ti/simplelink_msp432e4_sdk_4_20_00_12/source\ti/devices/msp432e4/driverlib/lib/gcc/m4f/msp432e4_driverlib.a(uart.o)
                0x00008580                UARTIntStatus
 .text.UARTIntClear
                0x000085ac       0x20 C:/ti/simplelink_msp432e4_sdk_4_20_00_12/source\ti/devices/msp432e4/driverlib/lib/gcc/m4f/msp432e4_driverlib.a(uart.o)
                0x000085ac                UARTIntClear
 .text.UARTRxErrorGet
                0x000085cc       0x1e C:/ti/simplelink_msp432e4_sdk_4_20_00_12/source\ti/devices/msp432e4/driverlib/lib/gcc/m4f/msp432e4_driverlib.a(uart.o)
                0x000085cc                UARTRxErrorGet
 .text.UARTRxErrorClear
                0x000085ea       0x1e C:/ti/simplelink_msp432e4_sdk_4_20_00_12/source\ti/devices/msp432e4/driverlib/lib/gcc/m4f/msp432e4_driverlib.a(uart.o)
                0x000085ea                UARTRxErrorClear
 .text.__retarget_lock_acquire_recursive
                0x00008608        0x2 c:/ti/ccs1020/ccs/tools/compiler/gcc-arm-none-eabi-9-2019-q4-major/bin/../lib/gcc/arm-none-eabi/9.2.1/../../../../arm-none-eabi/lib/thumb/v7e-m+fp/hard\libc_nano.a(lib_a-lock.o)
                0x00008608                __retarget_lock_acquire_recursive
 .text.__retarget_lock_release_recursive
                0x0000860a        0x2 c:/ti/ccs1020/ccs/tools/compiler/gcc-arm-none-eabi-9-2019-q4-major/bin/../lib/gcc/arm-none-eabi/9.2.1/../../../../arm-none-eabi/lib/thumb/v7e-m+fp/hard\libc_nano.a(lib_a-lock.o)
                0x0000860a                __retarget_lock_release_recursive
 .text.memcpy   0x0000860c       0x1c c:/ti/ccs1020/ccs/tools/compiler/gcc-arm-none-eabi-9-2019-q4-major/bin/../lib/gcc/arm-none-eabi/9.2.1/../../../../arm-none-eabi/lib/thumb/v7e-m+fp/hard\libc_nano.a(lib_a-memcpy-stub.o)
                0x0000860c                memcpy
 .text.memset   0x00008628       0x10 c:/ti/ccs1020/ccs/tools/compiler/gcc-arm-none-eabi-9-2019-q4-major/bin/../lib/gcc/arm-none-eabi/9.2.1/../../../../arm-none-eabi/lib/thumb/v7e-m+fp/hard\libc_nano.a(lib_a-memset.o)
                0x00008628                memset
 .text.cleanup_glue
                0x00008638       0x1a c:/ti/ccs1020/ccs/tools/compiler/gcc-arm-none-eabi-9-2019-q4-major/bin/../lib/gcc/arm-none-eabi/9.2.1/../../../../arm-none-eabi/lib/thumb/v7e-m+fp/hard\libc_nano.a(lib_a-reent.o)
                0x00008638                cleanup_glue
 *fill*         0x00008652        0x2 
 .text._reclaim_reent
                0x00008654       0xb8 c:/ti/ccs1020/ccs/tools/compiler/gcc-arm-none-eabi-9-2019-q4-major/bin/../lib/gcc/arm-none-eabi/9.2.1/../../../../arm-none-eabi/lib/thumb/v7e-m+fp/hard\libc_nano.a(lib_a-reent.o)
                0x00008654                _reclaim_reent
 .text.__malloc_lock
                0x0000870c        0xc c:/ti/ccs1020/ccs/tools/compiler/gcc-arm-none-eabi-9-2019-q4-major/bin/../lib/gcc/arm-none-eabi/9.2.1/../../../../arm-none-eabi/lib/thumb/v7e-m+fp/hard\libc_nano.a(lib_a-mlock.o)
                0x0000870c                __malloc_lock
 .text.__malloc_unlock
                0x00008718        0xc c:/ti/ccs1020/ccs/tools/compiler/gcc-arm-none-eabi-9-2019-q4-major/bin/../lib/gcc/arm-none-eabi/9.2.1/../../../../arm-none-eabi/lib/thumb/v7e-m+fp/hard\libc_nano.a(lib_a-mlock.o)
                0x00008718                __malloc_unlock
 .text._free_r  0x00008724       0xa0 c:/ti/ccs1020/ccs/tools/compiler/gcc-arm-none-eabi-9-2019-q4-major/bin/../lib/gcc/arm-none-eabi/9.2.1/../../../../arm-none-eabi/lib/thumb/v7e-m+fp/hard\libc_nano.a(lib_a-nano-freer.o)
                0x00008724                _free_r
                0x000087c4                . = ALIGN (0x4)
 *(.ctors)
                0x000087c4                . = ALIGN (0x4)
 *(.dtors)
                0x000087c4                . = ALIGN (0x4)
                0x000087c4                __init_array_start = .
 *(.init_array*)
                0x000087c4                __init_array_end = .
 *(.init)
 *(.fini*)
                [!provide]                PROVIDE (__etext = .)
                [!provide]                PROVIDE (_etext = .)
                [!provide]                PROVIDE (etext = .)

.glue_7         0x000087c4        0x0
 .glue_7        0x000087c4        0x0 linker stubs

.glue_7t        0x000087c4        0x0
 .glue_7t       0x000087c4        0x0 linker stubs

.vfp11_veneer   0x000087c4        0x0
 .vfp11_veneer  0x000087c4        0x0 linker stubs

.v4_bx          0x000087c4        0x0
 .v4_bx         0x000087c4        0x0 linker stubs

.iplt           0x000087c4        0x0
 .iplt          0x000087c4        0x0 ./MLX90614.o

.rodata         0x000087c4      0x854
 *(.rodata)
 .rodata        0x000087c4      0x23e ./MLX90614.o
 *fill*         0x00008a02        0x2 
 .rodata        0x00008a04       0x19 C:/Users/Ravonte/workspace_v10/freertos_builds_MSP_EXP432E401Y_release_gcc/Debug\libfreertos_builds_MSP_EXP432E401Y_release_gcc.a(SystemP_freertos.o)
 *fill*         0x00008a1d        0x3 
 .rodata        0x00008a20        0x5 C:/Users/Ravonte/workspace_v10/freertos_builds_MSP_EXP432E401Y_release_gcc/Debug\libfreertos_builds_MSP_EXP432E401Y_release_gcc.a(tasks.o)
 *fill*         0x00008a25        0x3 
 .rodata        0x00008a28        0x8 C:/Users/Ravonte/workspace_v10/freertos_builds_MSP_EXP432E401Y_release_gcc/Debug\libfreertos_builds_MSP_EXP432E401Y_release_gcc.a(timers.o)
 .rodata        0x00008a30        0x2 C:/Users/Ravonte/workspace_v10/freertos_builds_MSP_EXP432E401Y_release_gcc/Debug\libfreertos_builds_MSP_EXP432E401Y_release_gcc.a(pthread.o)
 *(.rodata*)
 *fill*         0x00008a32        0x2 
 .rodata.sensors
                0x00008a34       0x18 ./MLX90614.o
 .rodata.displayUartHWAttrs
                0x00008a4c       0x14 ./syscfg/ti_drivers_config.o
                0x00008a4c                displayUartHWAttrs
 .rodata.Display_config
                0x00008a60        0xc ./syscfg/ti_drivers_config.o
                0x00008a60                Display_config
 .rodata.Display_count
                0x00008a6c        0x1 ./syscfg/ti_drivers_config.o
                0x00008a6c                Display_count
 *fill*         0x00008a6d        0x3 
 .rodata.GPIOMSP432E4_config
                0x00008a70       0x14 ./syscfg/ti_drivers_config.o
                0x00008a70                GPIOMSP432E4_config
 .rodata.i2cMSP432E4HWAttrs
                0x00008a84       0x18 ./syscfg/ti_drivers_config.o
                0x00008a84                i2cMSP432E4HWAttrs
 .rodata.I2C_config
                0x00008a9c        0xc ./syscfg/ti_drivers_config.o
                0x00008a9c                I2C_config
 .rodata.I2C_count
                0x00008aa8        0x1 ./syscfg/ti_drivers_config.o
                0x00008aa8                I2C_count
 *fill*         0x00008aa9        0x3 
 .rodata.PowerMSP432E4_config
                0x00008aac        0x8 ./syscfg/ti_drivers_config.o
                0x00008aac                PowerMSP432E4_config
 .rodata.uartMSP432E4HWAttrs
                0x00008ab4       0x2c ./syscfg/ti_drivers_config.o
 .rodata.UART_config
                0x00008ae0        0xc ./syscfg/ti_drivers_config.o
                0x00008ae0                UART_config
 .rodata.UART_count
                0x00008aec        0x1 ./syscfg/ti_drivers_config.o
                0x00008aec                UART_count
 *fill*         0x00008aed        0x3 
 .rodata.Display_defaultParams
                0x00008af0        0x1 C:/ti/simplelink_msp432e4_sdk_4_20_00_12/source\ti/display/lib/display.am4fg(Display.om4fg)
                0x00008af0                Display_defaultParams
 *fill*         0x00008af1        0x3 
 .rodata.DisplayUartMin_fxnTable
                0x00008af4       0x20 C:/ti/simplelink_msp432e4_sdk_4_20_00_12/source\ti/display/lib/display.am4fg(DisplayUart.om4fg)
                0x00008af4                DisplayUartMin_fxnTable
 .rodata.gpioBaseAddresses
                0x00008b14       0x48 C:/ti/simplelink_msp432e4_sdk_4_20_00_12/source\ti/drivers/lib/drivers_msp432e4.am4fg(GPIOMSP432E4.om4fg)
 .rodata.gpioInterruptVectors
                0x00008b5c       0x20 C:/ti/simplelink_msp432e4_sdk_4_20_00_12/source\ti/drivers/lib/drivers_msp432e4.am4fg(GPIOMSP432E4.om4fg)
 .rodata.inPinTypes
                0x00008b7c        0x3 C:/ti/simplelink_msp432e4_sdk_4_20_00_12/source\ti/drivers/lib/drivers_msp432e4.am4fg(GPIOMSP432E4.om4fg)
 *fill*         0x00008b7f        0x1 
 .rodata.interruptType
                0x00008b80        0x6 C:/ti/simplelink_msp432e4_sdk_4_20_00_12/source\ti/drivers/lib/drivers_msp432e4.am4fg(GPIOMSP432E4.om4fg)
 *fill*         0x00008b86        0x2 
 .rodata.outPinStrengths
                0x00008b88        0x7 C:/ti/simplelink_msp432e4_sdk_4_20_00_12/source\ti/drivers/lib/drivers_msp432e4.am4fg(GPIOMSP432E4.om4fg)
 *fill*         0x00008b8f        0x1 
 .rodata.outPinTypes
                0x00008b90        0x4 C:/ti/simplelink_msp432e4_sdk_4_20_00_12/source\ti/drivers/lib/drivers_msp432e4.am4fg(GPIOMSP432E4.om4fg)
 .rodata.powerMgrIds
                0x00008b94       0x48 C:/ti/simplelink_msp432e4_sdk_4_20_00_12/source\ti/drivers/lib/drivers_msp432e4.am4fg(GPIOMSP432E4.om4fg)
 .rodata.I2C_defaultParams
                0x00008bdc       0x10 C:/ti/simplelink_msp432e4_sdk_4_20_00_12/source\ti/drivers/lib/drivers_msp432e4.am4fg(I2C.om4fg)
                0x00008bdc                I2C_defaultParams
 .rodata.I2CMSP432E4_fxnTable
                0x00008bec       0x18 C:/ti/simplelink_msp432e4_sdk_4_20_00_12/source\ti/drivers/lib/drivers_msp432e4.am4fg(I2CMSP432E4.om4fg)
                0x00008bec                I2CMSP432E4_fxnTable
 .rodata.UART_defaultParams
                0x00008c04       0x24 C:/ti/simplelink_msp432e4_sdk_4_20_00_12/source\ti/drivers/lib/drivers_msp432e4.am4fg(UART.om4fg)
                0x00008c04                UART_defaultParams
 .rodata.UARTMSP432E4_fxnTable
                0x00008c28       0x28 C:/ti/simplelink_msp432e4_sdk_4_20_00_12/source\ti/drivers/lib/drivers_msp432e4.am4fg(UARTMSP432E4.om4fg)
                0x00008c28                UARTMSP432E4_fxnTable
 .rodata.dataLength
                0x00008c50       0x10 C:/ti/simplelink_msp432e4_sdk_4_20_00_12/source\ti/drivers/lib/drivers_msp432e4.am4fg(UARTMSP432E4.om4fg)
 .rodata.parityType
                0x00008c60       0x14 C:/ti/simplelink_msp432e4_sdk_4_20_00_12/source\ti/drivers/lib/drivers_msp432e4.am4fg(UARTMSP432E4.om4fg)
 .rodata.staticFxnTable
                0x00008c74       0x20 C:/ti/simplelink_msp432e4_sdk_4_20_00_12/source\ti/drivers/lib/drivers_msp432e4.am4fg(UARTMSP432E4.om4fg)
 .rodata.stopBits
                0x00008c94        0x8 C:/ti/simplelink_msp432e4_sdk_4_20_00_12/source\ti/drivers/lib/drivers_msp432e4.am4fg(UARTMSP432E4.om4fg)
 .rodata.g_pui32GPIOBaseAddrs
                0x00008c9c       0x48 C:/ti/simplelink_msp432e4_sdk_4_20_00_12/source\ti/devices/msp432e4/driverlib/lib/gcc/m4f/msp432e4_driverlib.a(gpio.o)
 .rodata.g_pui32Regs
                0x00008ce4       0x9c C:/ti/simplelink_msp432e4_sdk_4_20_00_12/source\ti/devices/msp432e4/driverlib/lib/gcc/m4f/msp432e4_driverlib.a(interrupt.o)
 .rodata.g_pui32EnRegs
                0x00008d80       0x14 C:/ti/simplelink_msp432e4_sdk_4_20_00_12/source\ti/devices/msp432e4/driverlib/lib/gcc/m4f/msp432e4_driverlib.a(interrupt.o)
 .rodata.g_pui32Dii16Regs
                0x00008d94       0x14 C:/ti/simplelink_msp432e4_sdk_4_20_00_12/source\ti/devices/msp432e4/driverlib/lib/gcc/m4f/msp432e4_driverlib.a(interrupt.o)
 .rodata.g_pui32Xtals
                0x00008da8       0x28 C:/ti/simplelink_msp432e4_sdk_4_20_00_12/source\ti/devices/msp432e4/driverlib/lib/gcc/m4f/msp432e4_driverlib.a(sysctl.o)
 .rodata.g_pppui32XTALtoVCO
                0x00008dd0      0x1b0 C:/ti/simplelink_msp432e4_sdk_4_20_00_12/source\ti/devices/msp432e4/driverlib/lib/gcc/m4f/msp432e4_driverlib.a(sysctl.o)
 .rodata.g_sXTALtoMEMTIM
                0x00008f80       0x30 C:/ti/simplelink_msp432e4_sdk_4_20_00_12/source\ti/devices/msp432e4/driverlib/lib/gcc/m4f/msp432e4_driverlib.a(sysctl.o)
 .rodata.g_pui32VCOFrequencies
                0x00008fb0        0x8 C:/ti/simplelink_msp432e4_sdk_4_20_00_12/source\ti/devices/msp432e4/driverlib/lib/gcc/m4f/msp432e4_driverlib.a(sysctl.o)
 .rodata.__sf_fake_stderr
                0x00008fb8       0x20 c:/ti/ccs1020/ccs/tools/compiler/gcc-arm-none-eabi-9-2019-q4-major/bin/../lib/gcc/arm-none-eabi/9.2.1/../../../../arm-none-eabi/lib/thumb/v7e-m+fp/hard\libc_nano.a(lib_a-findfp.o)
                0x00008fb8                __sf_fake_stderr
 .rodata.__sf_fake_stdin
                0x00008fd8       0x20 c:/ti/ccs1020/ccs/tools/compiler/gcc-arm-none-eabi-9-2019-q4-major/bin/../lib/gcc/arm-none-eabi/9.2.1/../../../../arm-none-eabi/lib/thumb/v7e-m+fp/hard\libc_nano.a(lib_a-findfp.o)
                0x00008fd8                __sf_fake_stdin
 .rodata.__sf_fake_stdout
                0x00008ff8       0x20 c:/ti/ccs1020/ccs/tools/compiler/gcc-arm-none-eabi-9-2019-q4-major/bin/../lib/gcc/arm-none-eabi/9.2.1/../../../../arm-none-eabi/lib/thumb/v7e-m+fp/hard\libc_nano.a(lib_a-findfp.o)
                0x00008ff8                __sf_fake_stdout

.rel.dyn        0x00009018        0x0
 .rel.iplt      0x00009018        0x0 ./MLX90614.o

.data           0x20000000      0x1fc load address 0x00009018
                0x00009018                __data_load__ = LOADADDR (.data)
                0x20000000                __data_start__ = .
 *(.data)
 *(.data*)
 .data.gpioPinConfigs
                0x20000000        0x8 ./syscfg/ti_drivers_config.o
                0x20000000                gpioPinConfigs
 .data.PowerMSP432E4_module
                0x20000008      0x16c C:/ti/simplelink_msp432e4_sdk_4_20_00_12/source\ti/drivers/lib/drivers_msp432e4.am4fg(PowerMSP432E4.om4fg)
                0x20000008                PowerMSP432E4_module
 .data.ticksToWait
                0x20000174        0x4 C:/Users/Ravonte/workspace_v10/freertos_builds_MSP_EXP432E401Y_release_gcc/Debug\libfreertos_builds_MSP_EXP432E401Y_release_gcc.a(ClockP_freertos.o)
 .data.HwiP_nvic
                0x20000178        0x4 C:/Users/Ravonte/workspace_v10/freertos_builds_MSP_EXP432E401Y_release_gcc/Debug\libfreertos_builds_MSP_EXP432E401Y_release_gcc.a(HwiPMSP432E4_freertos.o)
 .data.uxTopUsedPriority
                0x2000017c        0x4 C:/Users/Ravonte/workspace_v10/freertos_builds_MSP_EXP432E401Y_release_gcc/Debug\libfreertos_builds_MSP_EXP432E401Y_release_gcc.a(tasks.o)
                0x2000017c                uxTopUsedPriority
 .data.uxCriticalNesting
                0x20000180        0x4 C:/Users/Ravonte/workspace_v10/freertos_builds_MSP_EXP432E401Y_release_gcc/Debug\libfreertos_builds_MSP_EXP432E401Y_release_gcc.a(port.o)
 .data.defaultPthreadAttrs
                0x20000184       0x14 C:/Users/Ravonte/workspace_v10/freertos_builds_MSP_EXP432E401Y_release_gcc/Debug\libfreertos_builds_MSP_EXP432E401Y_release_gcc.a(pthread.o)
 .data._impure_ptr
                0x20000198        0x4 c:/ti/ccs1020/ccs/tools/compiler/gcc-arm-none-eabi-9-2019-q4-major/bin/../lib/gcc/arm-none-eabi/9.2.1/../../../../arm-none-eabi/lib/thumb/v7e-m+fp/hard\libc_nano.a(lib_a-impure.o)
                0x20000198                _impure_ptr
 .data.impure_data
                0x2000019c       0x60 c:/ti/ccs1020/ccs/tools/compiler/gcc-arm-none-eabi-9-2019-q4-major/bin/../lib/gcc/arm-none-eabi/9.2.1/../../../../arm-none-eabi/lib/thumb/v7e-m+fp/hard\libc_nano.a(lib_a-impure.o)
                0x200001fc                . = ALIGN (0x4)
                0x200001fc                __data_end__ = .

.igot.plt       0x200001fc        0x0 load address 0x00009214
 .igot.plt      0x200001fc        0x0 ./MLX90614.o

vtable          0x20000400      0x26c load address 0x00009214
 vtable         0x20000400      0x26c C:/ti/simplelink_msp432e4_sdk_4_20_00_12/source\ti/devices/msp432e4/driverlib/lib/gcc/m4f/msp432e4_driverlib.a(interrupt.o)

.ARM.exidx      0x00009480        0x0
                0x00009480                __exidx_start = .
 *(.ARM.exidx* .gnu.linkonce.armexidx.*)
                0x00009480                __exidx_end = .

.ARM.extab
 *(.ARM.extab* .gnu.linkonce.armextab.*)

.nvs
 *(.nvs)

.bss            0x2000066c    0x20f64
                0x2000066c                __bss_start__ = .
 *(.shbss)
 *(.bss)
 *(.bss.*)
 .bss.slaveAddress
                0x2000066c        0x1 ./MLX90614.o
 *fill*         0x2000066d        0x3 
 .bss.display   0x20000670        0x4 ./MLX90614.o
 .bss.displayUARTBuffer
                0x20000674      0x400 ./syscfg/ti_drivers_config.o
 .bss.gpioCallbackFunctions
                0x20000a74        0x8 ./syscfg/ti_drivers_config.o
                0x20000a74                gpioCallbackFunctions
 .bss.uartMSP432E4RingBuffer0
                0x20000a7c       0x20 ./syscfg/ti_drivers_config.o
 .bss.gpioCallbackInfo
                0x20000a9c       0x90 C:/ti/simplelink_msp432e4_sdk_4_20_00_12/source\ti/drivers/lib/drivers_msp432e4.am4fg(GPIOMSP432E4.om4fg)
 .bss.initCalled
                0x20000b2c        0x1 C:/ti/simplelink_msp432e4_sdk_4_20_00_12/source\ti/drivers/lib/drivers_msp432e4.am4fg(GPIOMSP432E4.om4fg)
 *fill*         0x20000b2d        0x3 
 .bss.initSem.11228
                0x20000b30        0x4 C:/ti/simplelink_msp432e4_sdk_4_20_00_12/source\ti/drivers/lib/drivers_msp432e4.am4fg(GPIOMSP432E4.om4fg)
 .bss.portHwiCreatedBitMask
                0x20000b34        0x4 C:/ti/simplelink_msp432e4_sdk_4_20_00_12/source\ti/drivers/lib/drivers_msp432e4.am4fg(GPIOMSP432E4.om4fg)
 .bss.isInitialized
                0x20000b38        0x1 C:/ti/simplelink_msp432e4_sdk_4_20_00_12/source\ti/drivers/lib/drivers_msp432e4.am4fg(I2C.om4fg)
 .bss.isInitialized
                0x20000b39        0x1 C:/ti/simplelink_msp432e4_sdk_4_20_00_12/source\ti/drivers/lib/drivers_msp432e4.am4fg(UART.om4fg)
 *fill*         0x20000b3a        0x2 
 .bss.HwiP_dispatchTable
                0x20000b3c      0x800 C:/Users/Ravonte/workspace_v10/freertos_builds_MSP_EXP432E401Y_release_gcc/Debug\libfreertos_builds_MSP_EXP432E401Y_release_gcc.a(HwiPMSP432E4_freertos.o)
                0x20000b3c                HwiP_dispatchTable
 .bss.ucHeap    0x2000133c    0x20000 C:/Users/Ravonte/workspace_v10/freertos_builds_MSP_EXP432E401Y_release_gcc/Debug\libfreertos_builds_MSP_EXP432E401Y_release_gcc.a(heap_4.o)
 .bss.xStart    0x2002133c        0x8 C:/Users/Ravonte/workspace_v10/freertos_builds_MSP_EXP432E401Y_release_gcc/Debug\libfreertos_builds_MSP_EXP432E401Y_release_gcc.a(heap_4.o)
 .bss.pxEnd     0x20021344        0x4 C:/Users/Ravonte/workspace_v10/freertos_builds_MSP_EXP432E401Y_release_gcc/Debug\libfreertos_builds_MSP_EXP432E401Y_release_gcc.a(heap_4.o)
 .bss.xFreeBytesRemaining
                0x20021348        0x4 C:/Users/Ravonte/workspace_v10/freertos_builds_MSP_EXP432E401Y_release_gcc/Debug\libfreertos_builds_MSP_EXP432E401Y_release_gcc.a(heap_4.o)
 .bss.xMinimumEverFreeBytesRemaining
                0x2002134c        0x4 C:/Users/Ravonte/workspace_v10/freertos_builds_MSP_EXP432E401Y_release_gcc/Debug\libfreertos_builds_MSP_EXP432E401Y_release_gcc.a(heap_4.o)
 .bss.xNumberOfSuccessfulAllocations
                0x20021350        0x4 C:/Users/Ravonte/workspace_v10/freertos_builds_MSP_EXP432E401Y_release_gcc/Debug\libfreertos_builds_MSP_EXP432E401Y_release_gcc.a(heap_4.o)
 .bss.xNumberOfSuccessfulFrees
                0x20021354        0x4 C:/Users/Ravonte/workspace_v10/freertos_builds_MSP_EXP432E401Y_release_gcc/Debug\libfreertos_builds_MSP_EXP432E401Y_release_gcc.a(heap_4.o)
 .bss.xBlockAllocatedBit
                0x20021358        0x4 C:/Users/Ravonte/workspace_v10/freertos_builds_MSP_EXP432E401Y_release_gcc/Debug\libfreertos_builds_MSP_EXP432E401Y_release_gcc.a(heap_4.o)
 .bss.pxCurrentTCB
                0x2002135c        0x4 C:/Users/Ravonte/workspace_v10/freertos_builds_MSP_EXP432E401Y_release_gcc/Debug\libfreertos_builds_MSP_EXP432E401Y_release_gcc.a(tasks.o)
                0x2002135c                pxCurrentTCB
 .bss.pxReadyTasksLists
                0x20021360       0xc8 C:/Users/Ravonte/workspace_v10/freertos_builds_MSP_EXP432E401Y_release_gcc/Debug\libfreertos_builds_MSP_EXP432E401Y_release_gcc.a(tasks.o)
 .bss.xDelayedTaskList1
                0x20021428       0x14 C:/Users/Ravonte/workspace_v10/freertos_builds_MSP_EXP432E401Y_release_gcc/Debug\libfreertos_builds_MSP_EXP432E401Y_release_gcc.a(tasks.o)
 .bss.xDelayedTaskList2
                0x2002143c       0x14 C:/Users/Ravonte/workspace_v10/freertos_builds_MSP_EXP432E401Y_release_gcc/Debug\libfreertos_builds_MSP_EXP432E401Y_release_gcc.a(tasks.o)
 .bss.pxDelayedTaskList
                0x20021450        0x4 C:/Users/Ravonte/workspace_v10/freertos_builds_MSP_EXP432E401Y_release_gcc/Debug\libfreertos_builds_MSP_EXP432E401Y_release_gcc.a(tasks.o)
 .bss.pxOverflowDelayedTaskList
                0x20021454        0x4 C:/Users/Ravonte/workspace_v10/freertos_builds_MSP_EXP432E401Y_release_gcc/Debug\libfreertos_builds_MSP_EXP432E401Y_release_gcc.a(tasks.o)
 .bss.xPendingReadyList
                0x20021458       0x14 C:/Users/Ravonte/workspace_v10/freertos_builds_MSP_EXP432E401Y_release_gcc/Debug\libfreertos_builds_MSP_EXP432E401Y_release_gcc.a(tasks.o)
 .bss.xTasksWaitingTermination
                0x2002146c       0x14 C:/Users/Ravonte/workspace_v10/freertos_builds_MSP_EXP432E401Y_release_gcc/Debug\libfreertos_builds_MSP_EXP432E401Y_release_gcc.a(tasks.o)
 .bss.uxDeletedTasksWaitingCleanUp
                0x20021480        0x4 C:/Users/Ravonte/workspace_v10/freertos_builds_MSP_EXP432E401Y_release_gcc/Debug\libfreertos_builds_MSP_EXP432E401Y_release_gcc.a(tasks.o)
 .bss.xSuspendedTaskList
                0x20021484       0x14 C:/Users/Ravonte/workspace_v10/freertos_builds_MSP_EXP432E401Y_release_gcc/Debug\libfreertos_builds_MSP_EXP432E401Y_release_gcc.a(tasks.o)
 .bss.uxCurrentNumberOfTasks
                0x20021498        0x4 C:/Users/Ravonte/workspace_v10/freertos_builds_MSP_EXP432E401Y_release_gcc/Debug\libfreertos_builds_MSP_EXP432E401Y_release_gcc.a(tasks.o)
 .bss.xTickCount
                0x2002149c        0x4 C:/Users/Ravonte/workspace_v10/freertos_builds_MSP_EXP432E401Y_release_gcc/Debug\libfreertos_builds_MSP_EXP432E401Y_release_gcc.a(tasks.o)
 .bss.uxTopReadyPriority
                0x200214a0        0x4 C:/Users/Ravonte/workspace_v10/freertos_builds_MSP_EXP432E401Y_release_gcc/Debug\libfreertos_builds_MSP_EXP432E401Y_release_gcc.a(tasks.o)
 .bss.xSchedulerRunning
                0x200214a4        0x4 C:/Users/Ravonte/workspace_v10/freertos_builds_MSP_EXP432E401Y_release_gcc/Debug\libfreertos_builds_MSP_EXP432E401Y_release_gcc.a(tasks.o)
 .bss.xPendedTicks
                0x200214a8        0x4 C:/Users/Ravonte/workspace_v10/freertos_builds_MSP_EXP432E401Y_release_gcc/Debug\libfreertos_builds_MSP_EXP432E401Y_release_gcc.a(tasks.o)
 .bss.xYieldPending
                0x200214ac        0x4 C:/Users/Ravonte/workspace_v10/freertos_builds_MSP_EXP432E401Y_release_gcc/Debug\libfreertos_builds_MSP_EXP432E401Y_release_gcc.a(tasks.o)
 .bss.xNumOfOverflows
                0x200214b0        0x4 C:/Users/Ravonte/workspace_v10/freertos_builds_MSP_EXP432E401Y_release_gcc/Debug\libfreertos_builds_MSP_EXP432E401Y_release_gcc.a(tasks.o)
 .bss.uxTaskNumber
                0x200214b4        0x4 C:/Users/Ravonte/workspace_v10/freertos_builds_MSP_EXP432E401Y_release_gcc/Debug\libfreertos_builds_MSP_EXP432E401Y_release_gcc.a(tasks.o)
 .bss.xNextTaskUnblockTime
                0x200214b8        0x4 C:/Users/Ravonte/workspace_v10/freertos_builds_MSP_EXP432E401Y_release_gcc/Debug\libfreertos_builds_MSP_EXP432E401Y_release_gcc.a(tasks.o)
 .bss.xIdleTaskHandle
                0x200214bc        0x4 C:/Users/Ravonte/workspace_v10/freertos_builds_MSP_EXP432E401Y_release_gcc/Debug\libfreertos_builds_MSP_EXP432E401Y_release_gcc.a(tasks.o)
 .bss.uxSchedulerSuspended
                0x200214c0        0x4 C:/Users/Ravonte/workspace_v10/freertos_builds_MSP_EXP432E401Y_release_gcc/Debug\libfreertos_builds_MSP_EXP432E401Y_release_gcc.a(tasks.o)
 .bss.xActiveTimerList1
                0x200214c4       0x14 C:/Users/Ravonte/workspace_v10/freertos_builds_MSP_EXP432E401Y_release_gcc/Debug\libfreertos_builds_MSP_EXP432E401Y_release_gcc.a(timers.o)
 .bss.xActiveTimerList2
                0x200214d8       0x14 C:/Users/Ravonte/workspace_v10/freertos_builds_MSP_EXP432E401Y_release_gcc/Debug\libfreertos_builds_MSP_EXP432E401Y_release_gcc.a(timers.o)
 .bss.pxCurrentTimerList
                0x200214ec        0x4 C:/Users/Ravonte/workspace_v10/freertos_builds_MSP_EXP432E401Y_release_gcc/Debug\libfreertos_builds_MSP_EXP432E401Y_release_gcc.a(timers.o)
 .bss.pxOverflowTimerList
                0x200214f0        0x4 C:/Users/Ravonte/workspace_v10/freertos_builds_MSP_EXP432E401Y_release_gcc/Debug\libfreertos_builds_MSP_EXP432E401Y_release_gcc.a(timers.o)
 .bss.xTimerQueue
                0x200214f4        0x4 C:/Users/Ravonte/workspace_v10/freertos_builds_MSP_EXP432E401Y_release_gcc/Debug\libfreertos_builds_MSP_EXP432E401Y_release_gcc.a(timers.o)
 .bss.xTimerTaskHandle
                0x200214f8        0x4 C:/Users/Ravonte/workspace_v10/freertos_builds_MSP_EXP432E401Y_release_gcc/Debug\libfreertos_builds_MSP_EXP432E401Y_release_gcc.a(timers.o)
 .bss.xLastTime.6662
                0x200214fc        0x4 C:/Users/Ravonte/workspace_v10/freertos_builds_MSP_EXP432E401Y_release_gcc/Debug\libfreertos_builds_MSP_EXP432E401Y_release_gcc.a(timers.o)
 .bss.ulTimerCountsForOneTick
                0x20021500        0x4 C:/Users/Ravonte/workspace_v10/freertos_builds_MSP_EXP432E401Y_release_gcc/Debug\libfreertos_builds_MSP_EXP432E401Y_release_gcc.a(port.o)
 .bss.xMaximumPossibleSuppressedTicks
                0x20021504        0x4 C:/Users/Ravonte/workspace_v10/freertos_builds_MSP_EXP432E401Y_release_gcc/Debug\libfreertos_builds_MSP_EXP432E401Y_release_gcc.a(port.o)
 .bss.ulStoppedTimerCompensation
                0x20021508        0x4 C:/Users/Ravonte/workspace_v10/freertos_builds_MSP_EXP432E401Y_release_gcc/Debug\libfreertos_builds_MSP_EXP432E401Y_release_gcc.a(port.o)
 .bss.ucMaxSysCallPriority
                0x2002150c        0x1 C:/Users/Ravonte/workspace_v10/freertos_builds_MSP_EXP432E401Y_release_gcc/Debug\libfreertos_builds_MSP_EXP432E401Y_release_gcc.a(port.o)
 *fill*         0x2002150d        0x3 
 .bss.ulMaxPRIGROUPValue
                0x20021510        0x4 C:/Users/Ravonte/workspace_v10/freertos_builds_MSP_EXP432E401Y_release_gcc/Debug\libfreertos_builds_MSP_EXP432E401Y_release_gcc.a(port.o)
 .bss.__malloc_free_list
                0x20021514        0x4 c:/ti/ccs1020/ccs/tools/compiler/gcc-arm-none-eabi-9-2019-q4-major/bin/../lib/gcc/arm-none-eabi/9.2.1/../../../../arm-none-eabi/lib/thumb/v7e-m+fp/hard\libc_nano.a(lib_a-nano-mallocr.o)
                0x20021514                __malloc_free_list
 *(COMMON)
 COMMON         0x20021518       0xac ./syscfg/ti_drivers_config.o
                0x20021518                i2cMSP432E4Objects
                0x20021554                displayUartObject
                0x20021560                uartMSP432E4Objects
 COMMON         0x200215c4        0x9 c:/ti/ccs1020/ccs/tools/compiler/gcc-arm-none-eabi-9-2019-q4-major/bin/../lib/gcc/arm-none-eabi/9.2.1/../../../../arm-none-eabi/lib/thumb/v7e-m+fp/hard\libc_nano.a(lib_a-lock.o)
                0x200215c4                __lock___atexit_recursive_mutex
                0x200215c5                __lock___arc4random_mutex
                0x200215c6                __lock___env_recursive_mutex
                0x200215c7                __lock___sinit_recursive_mutex
                0x200215c8                __lock___malloc_recursive_mutex
                0x200215c9                __lock___at_quick_exit_mutex
                0x200215ca                __lock___dd_hash_mutex
                0x200215cb                __lock___tz_mutex
                0x200215cc                __lock___sfp_recursive_mutex
                0x200215d0                . = ALIGN (0x4)
 *fill*         0x200215cd        0x3 
                0x200215d0                __bss_end__ = .

.heap           0x200215d0        0x0
                0x200215d0                __heap_start__ = .
                0x200215d0                end = __heap_start__
                0x200215d0                _end = end
                0x200215d0                __end = end
 *(.heap)
                0x200215d0                __heap_end__ = .
                0x200215d0                __HeapLimit = __heap_end__

.stack          0x200215d0      0x800
                0x200215d0                _stack = .
                0x200215d0                __stack = .
 *(.stack)
                0x20021dd0                . = (. + STACKSIZE)
 *fill*         0x200215d0      0x800 
                0x20021dd0                _stack_end = .
                0x20021dd0                __stack_end = .
LOAD C:/ti/simplelink_msp432e4_sdk_4_20_00_12/source\ti/display/lib/display.am4fg
LOAD C:/ti/simplelink_msp432e4_sdk_4_20_00_12/source\ti/grlib/lib/gcc/m4f/grlib.a
LOAD C:/ti/simplelink_msp432e4_sdk_4_20_00_12/source\third_party/spiffs/lib/gcc/m4f/spiffs.a
LOAD C:/ti/simplelink_msp432e4_sdk_4_20_00_12/source\ti/drivers/lib/drivers_msp432e4.am4fg
LOAD C:/ti/simplelink_msp432e4_sdk_4_20_00_12/source\third_party/fatfs/lib/gcc/m4f/fatfs.a
LOAD C:/Users/Ravonte/workspace_v10/freertos_builds_MSP_EXP432E401Y_release_gcc/Debug\libfreertos_builds_MSP_EXP432E401Y_release_gcc.a
LOAD C:/ti/simplelink_msp432e4_sdk_4_20_00_12/source\ti/devices/msp432e4/driverlib/lib/gcc/m4f/msp432e4_driverlib.a
LOAD c:/ti/ccs1020/ccs/tools/compiler/gcc-arm-none-eabi-9-2019-q4-major/bin/../lib/gcc/arm-none-eabi/9.2.1/thumb/v7e-m+fp/hard\libgcc.a
LOAD c:/ti/ccs1020/ccs/tools/compiler/gcc-arm-none-eabi-9-2019-q4-major/bin/../lib/gcc/arm-none-eabi/9.2.1/../../../../arm-none-eabi/lib/thumb/v7e-m+fp/hard\libc_nano.a
LOAD c:/ti/ccs1020/ccs/tools/compiler/gcc-arm-none-eabi-9-2019-q4-major/bin/../lib/gcc/arm-none-eabi/9.2.1/../../../../arm-none-eabi/lib/thumb/v7e-m+fp/hard\libm.a
LOAD c:/ti/ccs1020/ccs/tools/compiler/gcc-arm-none-eabi-9-2019-q4-major/bin/../lib/gcc/arm-none-eabi/9.2.1/../../../../arm-none-eabi/lib/thumb/v7e-m+fp/hard\libnosys.a
START GROUP
LOAD c:/ti/ccs1020/ccs/tools/compiler/gcc-arm-none-eabi-9-2019-q4-major/bin/../lib/gcc/arm-none-eabi/9.2.1/thumb/v7e-m+fp/hard\libgcc.a
LOAD c:/ti/ccs1020/ccs/tools/compiler/gcc-arm-none-eabi-9-2019-q4-major/bin/../lib/gcc/arm-none-eabi/9.2.1/../../../../arm-none-eabi/lib/thumb/v7e-m+fp/hard\libg_nano.a
LOAD c:/ti/ccs1020/ccs/tools/compiler/gcc-arm-none-eabi-9-2019-q4-major/bin/../lib/gcc/arm-none-eabi/9.2.1/../../../../arm-none-eabi/lib/thumb/v7e-m+fp/hard\libc_nano.a
END GROUP
START GROUP
LOAD c:/ti/ccs1020/ccs/tools/compiler/gcc-arm-none-eabi-9-2019-q4-major/bin/../lib/gcc/arm-none-eabi/9.2.1/thumb/v7e-m+fp/hard\libgcc.a
LOAD c:/ti/ccs1020/ccs/tools/compiler/gcc-arm-none-eabi-9-2019-q4-major/bin/../lib/gcc/arm-none-eabi/9.2.1/../../../../arm-none-eabi/lib/thumb/v7e-m+fp/hard\libc_nano.a
END GROUP
OUTPUT(i2ctmp_MSP_EXP432E401Y_freertos_gcc.out elf32-littlearm)

.debug_info     0x00000000    0x2021e
 .debug_info    0x00000000      0x8c5 ./MLX90614.o
 .debug_info    0x000008c5     0x1ab4 ./syscfg/ti_drivers_config.o
 .debug_info    0x00002379      0xa55 ./main_freertos.o
 .debug_info    0x00002dce      0x650 C:/ti/simplelink_msp432e4_sdk_4_20_00_12/source\ti/display/lib/display.am4fg(Display.om4fg)
 .debug_info    0x0000341e     0x1aa5 C:/ti/simplelink_msp432e4_sdk_4_20_00_12/source\ti/display/lib/display.am4fg(DisplayUart.om4fg)
 .debug_info    0x00004ec3     0x1c5a C:/ti/simplelink_msp432e4_sdk_4_20_00_12/source\ti/drivers/lib/drivers_msp432e4.am4fg(GPIOMSP432E4.om4fg)
 .debug_info    0x00006b1d     0x109c C:/ti/simplelink_msp432e4_sdk_4_20_00_12/source\ti/drivers/lib/drivers_msp432e4.am4fg(I2C.om4fg)
 .debug_info    0x00007bb9     0x20c4 C:/ti/simplelink_msp432e4_sdk_4_20_00_12/source\ti/drivers/lib/drivers_msp432e4.am4fg(I2CMSP432E4.om4fg)
 .debug_info    0x00009c7d      0x5a6 C:/ti/simplelink_msp432e4_sdk_4_20_00_12/source\ti/drivers/lib/drivers_msp432e4.am4fg(PowerMSP432E4.om4fg)
 .debug_info    0x0000a223     0x12d3 C:/ti/simplelink_msp432e4_sdk_4_20_00_12/source\ti/drivers/lib/drivers_msp432e4.am4fg(UART.om4fg)
 .debug_info    0x0000b4f6     0x2485 C:/ti/simplelink_msp432e4_sdk_4_20_00_12/source\ti/drivers/lib/drivers_msp432e4.am4fg(UARTMSP432E4.om4fg)
 .debug_info    0x0000d97b      0x365 C:/ti/simplelink_msp432e4_sdk_4_20_00_12/source\ti/drivers/lib/drivers_msp432e4.am4fg(RingBuf.om4fg)
 .debug_info    0x0000dce0      0xf1d C:/Users/Ravonte/workspace_v10/freertos_builds_MSP_EXP432E401Y_release_gcc/Debug\libfreertos_builds_MSP_EXP432E401Y_release_gcc.a(ClockP_freertos.o)
 .debug_info    0x0000ebfd     0x1249 C:/Users/Ravonte/workspace_v10/freertos_builds_MSP_EXP432E401Y_release_gcc/Debug\libfreertos_builds_MSP_EXP432E401Y_release_gcc.a(HwiPMSP432E4_freertos.o)
 .debug_info    0x0000fe46      0x982 C:/Users/Ravonte/workspace_v10/freertos_builds_MSP_EXP432E401Y_release_gcc/Debug\libfreertos_builds_MSP_EXP432E401Y_release_gcc.a(PowerMSP432E4_freertos.o)
 .debug_info    0x000107c8      0xbad C:/Users/Ravonte/workspace_v10/freertos_builds_MSP_EXP432E401Y_release_gcc/Debug\libfreertos_builds_MSP_EXP432E401Y_release_gcc.a(SemaphoreP_freertos.o)
 .debug_info    0x00011375      0xd0f C:/Users/Ravonte/workspace_v10/freertos_builds_MSP_EXP432E401Y_release_gcc/Debug\libfreertos_builds_MSP_EXP432E401Y_release_gcc.a(SystemP_freertos.o)
 .debug_info    0x00012084      0xd8d C:/Users/Ravonte/workspace_v10/freertos_builds_MSP_EXP432E401Y_release_gcc/Debug\libfreertos_builds_MSP_EXP432E401Y_release_gcc.a(heap_4.o)
 .debug_info    0x00012e11     0x1ee2 C:/Users/Ravonte/workspace_v10/freertos_builds_MSP_EXP432E401Y_release_gcc/Debug\libfreertos_builds_MSP_EXP432E401Y_release_gcc.a(queue.o)
 .debug_info    0x00014cf3     0x2d5c C:/Users/Ravonte/workspace_v10/freertos_builds_MSP_EXP432E401Y_release_gcc/Debug\libfreertos_builds_MSP_EXP432E401Y_release_gcc.a(tasks.o)
 .debug_info    0x00017a4f     0x1583 C:/Users/Ravonte/workspace_v10/freertos_builds_MSP_EXP432E401Y_release_gcc/Debug\libfreertos_builds_MSP_EXP432E401Y_release_gcc.a(timers.o)
 .debug_info    0x00018fd2      0xe7c C:/Users/Ravonte/workspace_v10/freertos_builds_MSP_EXP432E401Y_release_gcc/Debug\libfreertos_builds_MSP_EXP432E401Y_release_gcc.a(port.o)
 .debug_info    0x00019e4e      0x281 C:/Users/Ravonte/workspace_v10/freertos_builds_MSP_EXP432E401Y_release_gcc/Debug\libfreertos_builds_MSP_EXP432E401Y_release_gcc.a(startup_msp432e4_gcc.o)
 .debug_info    0x0001a0cf     0x1745 C:/Users/Ravonte/workspace_v10/freertos_builds_MSP_EXP432E401Y_release_gcc/Debug\libfreertos_builds_MSP_EXP432E401Y_release_gcc.a(pthread.o)
 .debug_info    0x0001b814      0xb28 C:/Users/Ravonte/workspace_v10/freertos_builds_MSP_EXP432E401Y_release_gcc/Debug\libfreertos_builds_MSP_EXP432E401Y_release_gcc.a(sleep.o)
 .debug_info    0x0001c33c      0xb7e C:/Users/Ravonte/workspace_v10/freertos_builds_MSP_EXP432E401Y_release_gcc/Debug\libfreertos_builds_MSP_EXP432E401Y_release_gcc.a(list.o)
 .debug_info    0x0001ceba      0x169 C:/ti/simplelink_msp432e4_sdk_4_20_00_12/source\ti/devices/msp432e4/driverlib/lib/gcc/m4f/msp432e4_driverlib.a(fpu.o)
 .debug_info    0x0001d023      0xcea C:/ti/simplelink_msp432e4_sdk_4_20_00_12/source\ti/devices/msp432e4/driverlib/lib/gcc/m4f/msp432e4_driverlib.a(gpio.o)
 .debug_info    0x0001dd0d      0xbfe C:/ti/simplelink_msp432e4_sdk_4_20_00_12/source\ti/devices/msp432e4/driverlib/lib/gcc/m4f/msp432e4_driverlib.a(i2c.o)
 .debug_info    0x0001e90b      0x43b C:/ti/simplelink_msp432e4_sdk_4_20_00_12/source\ti/devices/msp432e4/driverlib/lib/gcc/m4f/msp432e4_driverlib.a(interrupt.o)
 .debug_info    0x0001ed46      0x9bf C:/ti/simplelink_msp432e4_sdk_4_20_00_12/source\ti/devices/msp432e4/driverlib/lib/gcc/m4f/msp432e4_driverlib.a(sysctl.o)
 .debug_info    0x0001f705      0xb19 C:/ti/simplelink_msp432e4_sdk_4_20_00_12/source\ti/devices/msp432e4/driverlib/lib/gcc/m4f/msp432e4_driverlib.a(uart.o)

.debug_abbrev   0x00000000     0x4a51
 .debug_abbrev  0x00000000      0x1dc ./MLX90614.o
 .debug_abbrev  0x000001dc      0x26c ./syscfg/ti_drivers_config.o
 .debug_abbrev  0x00000448      0x1b8 ./main_freertos.o
 .debug_abbrev  0x00000600      0x21b C:/ti/simplelink_msp432e4_sdk_4_20_00_12/source\ti/display/lib/display.am4fg(Display.om4fg)
 .debug_abbrev  0x0000081b      0x426 C:/ti/simplelink_msp432e4_sdk_4_20_00_12/source\ti/display/lib/display.am4fg(DisplayUart.om4fg)
 .debug_abbrev  0x00000c41      0x441 C:/ti/simplelink_msp432e4_sdk_4_20_00_12/source\ti/drivers/lib/drivers_msp432e4.am4fg(GPIOMSP432E4.om4fg)
 .debug_abbrev  0x00001082      0x2f0 C:/ti/simplelink_msp432e4_sdk_4_20_00_12/source\ti/drivers/lib/drivers_msp432e4.am4fg(I2C.om4fg)
 .debug_abbrev  0x00001372      0x4c9 C:/ti/simplelink_msp432e4_sdk_4_20_00_12/source\ti/drivers/lib/drivers_msp432e4.am4fg(I2CMSP432E4.om4fg)
 .debug_abbrev  0x0000183b      0x269 C:/ti/simplelink_msp432e4_sdk_4_20_00_12/source\ti/drivers/lib/drivers_msp432e4.am4fg(PowerMSP432E4.om4fg)
 .debug_abbrev  0x00001aa4      0x2bc C:/ti/simplelink_msp432e4_sdk_4_20_00_12/source\ti/drivers/lib/drivers_msp432e4.am4fg(UART.om4fg)
 .debug_abbrev  0x00001d60      0x499 C:/ti/simplelink_msp432e4_sdk_4_20_00_12/source\ti/drivers/lib/drivers_msp432e4.am4fg(UARTMSP432E4.om4fg)
 .debug_abbrev  0x000021f9      0x12d C:/ti/simplelink_msp432e4_sdk_4_20_00_12/source\ti/drivers/lib/drivers_msp432e4.am4fg(RingBuf.om4fg)
 .debug_abbrev  0x00002326      0x2cf C:/Users/Ravonte/workspace_v10/freertos_builds_MSP_EXP432E401Y_release_gcc/Debug\libfreertos_builds_MSP_EXP432E401Y_release_gcc.a(ClockP_freertos.o)
 .debug_abbrev  0x000025f5      0x299 C:/Users/Ravonte/workspace_v10/freertos_builds_MSP_EXP432E401Y_release_gcc/Debug\libfreertos_builds_MSP_EXP432E401Y_release_gcc.a(HwiPMSP432E4_freertos.o)
 .debug_abbrev  0x0000288e      0x1a3 C:/Users/Ravonte/workspace_v10/freertos_builds_MSP_EXP432E401Y_release_gcc/Debug\libfreertos_builds_MSP_EXP432E401Y_release_gcc.a(PowerMSP432E4_freertos.o)
 .debug_abbrev  0x00002a31      0x21a C:/Users/Ravonte/workspace_v10/freertos_builds_MSP_EXP432E401Y_release_gcc/Debug\libfreertos_builds_MSP_EXP432E401Y_release_gcc.a(SemaphoreP_freertos.o)
 .debug_abbrev  0x00002c4b      0x29e C:/Users/Ravonte/workspace_v10/freertos_builds_MSP_EXP432E401Y_release_gcc/Debug\libfreertos_builds_MSP_EXP432E401Y_release_gcc.a(SystemP_freertos.o)
 .debug_abbrev  0x00002ee9      0x2ae C:/Users/Ravonte/workspace_v10/freertos_builds_MSP_EXP432E401Y_release_gcc/Debug\libfreertos_builds_MSP_EXP432E401Y_release_gcc.a(heap_4.o)
 .debug_abbrev  0x00003197      0x297 C:/Users/Ravonte/workspace_v10/freertos_builds_MSP_EXP432E401Y_release_gcc/Debug\libfreertos_builds_MSP_EXP432E401Y_release_gcc.a(queue.o)
 .debug_abbrev  0x0000342e      0x317 C:/Users/Ravonte/workspace_v10/freertos_builds_MSP_EXP432E401Y_release_gcc/Debug\libfreertos_builds_MSP_EXP432E401Y_release_gcc.a(tasks.o)
 .debug_abbrev  0x00003745      0x27f C:/Users/Ravonte/workspace_v10/freertos_builds_MSP_EXP432E401Y_release_gcc/Debug\libfreertos_builds_MSP_EXP432E401Y_release_gcc.a(timers.o)
 .debug_abbrev  0x000039c4      0x322 C:/Users/Ravonte/workspace_v10/freertos_builds_MSP_EXP432E401Y_release_gcc/Debug\libfreertos_builds_MSP_EXP432E401Y_release_gcc.a(port.o)
 .debug_abbrev  0x00003ce6      0x126 C:/Users/Ravonte/workspace_v10/freertos_builds_MSP_EXP432E401Y_release_gcc/Debug\libfreertos_builds_MSP_EXP432E401Y_release_gcc.a(startup_msp432e4_gcc.o)
 .debug_abbrev  0x00003e0c      0x255 C:/Users/Ravonte/workspace_v10/freertos_builds_MSP_EXP432E401Y_release_gcc/Debug\libfreertos_builds_MSP_EXP432E401Y_release_gcc.a(pthread.o)
 .debug_abbrev  0x00004061      0x1b9 C:/Users/Ravonte/workspace_v10/freertos_builds_MSP_EXP432E401Y_release_gcc/Debug\libfreertos_builds_MSP_EXP432E401Y_release_gcc.a(sleep.o)
 .debug_abbrev  0x0000421a      0x1d8 C:/Users/Ravonte/workspace_v10/freertos_builds_MSP_EXP432E401Y_release_gcc/Debug\libfreertos_builds_MSP_EXP432E401Y_release_gcc.a(list.o)
 .debug_abbrev  0x000043f2       0x98 C:/ti/simplelink_msp432e4_sdk_4_20_00_12/source\ti/devices/msp432e4/driverlib/lib/gcc/m4f/msp432e4_driverlib.a(fpu.o)
 .debug_abbrev  0x0000448a      0x123 C:/ti/simplelink_msp432e4_sdk_4_20_00_12/source\ti/devices/msp432e4/driverlib/lib/gcc/m4f/msp432e4_driverlib.a(gpio.o)
 .debug_abbrev  0x000045ad      0x123 C:/ti/simplelink_msp432e4_sdk_4_20_00_12/source\ti/devices/msp432e4/driverlib/lib/gcc/m4f/msp432e4_driverlib.a(i2c.o)
 .debug_abbrev  0x000046d0       0xfe C:/ti/simplelink_msp432e4_sdk_4_20_00_12/source\ti/devices/msp432e4/driverlib/lib/gcc/m4f/msp432e4_driverlib.a(interrupt.o)
 .debug_abbrev  0x000047ce      0x147 C:/ti/simplelink_msp432e4_sdk_4_20_00_12/source\ti/devices/msp432e4/driverlib/lib/gcc/m4f/msp432e4_driverlib.a(sysctl.o)
 .debug_abbrev  0x00004915      0x13c C:/ti/simplelink_msp432e4_sdk_4_20_00_12/source\ti/devices/msp432e4/driverlib/lib/gcc/m4f/msp432e4_driverlib.a(uart.o)

.debug_aranges  0x00000000     0x14d8
 .debug_aranges
                0x00000000       0x28 ./MLX90614.o
 .debug_aranges
                0x00000028       0x28 ./syscfg/ti_drivers_config.o
 .debug_aranges
                0x00000050       0x28 ./main_freertos.o
 .debug_aranges
                0x00000078       0x60 C:/ti/simplelink_msp432e4_sdk_4_20_00_12/source\ti/display/lib/display.am4fg(Display.om4fg)
 .debug_aranges
                0x000000d8       0x78 C:/ti/simplelink_msp432e4_sdk_4_20_00_12/source\ti/display/lib/display.am4fg(DisplayUart.om4fg)
 .debug_aranges
                0x00000150       0x88 C:/ti/simplelink_msp432e4_sdk_4_20_00_12/source\ti/drivers/lib/drivers_msp432e4.am4fg(GPIOMSP432E4.om4fg)
 .debug_aranges
                0x000001d8       0x58 C:/ti/simplelink_msp432e4_sdk_4_20_00_12/source\ti/drivers/lib/drivers_msp432e4.am4fg(I2C.om4fg)
 .debug_aranges
                0x00000230       0x90 C:/ti/simplelink_msp432e4_sdk_4_20_00_12/source\ti/drivers/lib/drivers_msp432e4.am4fg(I2CMSP432E4.om4fg)
 .debug_aranges
                0x000002c0       0x58 C:/ti/simplelink_msp432e4_sdk_4_20_00_12/source\ti/drivers/lib/drivers_msp432e4.am4fg(PowerMSP432E4.om4fg)
 .debug_aranges
                0x00000318       0x70 C:/ti/simplelink_msp432e4_sdk_4_20_00_12/source\ti/drivers/lib/drivers_msp432e4.am4fg(UART.om4fg)
 .debug_aranges
                0x00000388       0xd0 C:/ti/simplelink_msp432e4_sdk_4_20_00_12/source\ti/drivers/lib/drivers_msp432e4.am4fg(UARTMSP432E4.om4fg)
 .debug_aranges
                0x00000458       0x50 C:/ti/simplelink_msp432e4_sdk_4_20_00_12/source\ti/drivers/lib/drivers_msp432e4.am4fg(RingBuf.om4fg)
 .debug_aranges
                0x000004a8       0x90 C:/Users/Ravonte/workspace_v10/freertos_builds_MSP_EXP432E401Y_release_gcc/Debug\libfreertos_builds_MSP_EXP432E401Y_release_gcc.a(ClockP_freertos.o)
 .debug_aranges
                0x00000538       0x88 C:/Users/Ravonte/workspace_v10/freertos_builds_MSP_EXP432E401Y_release_gcc/Debug\libfreertos_builds_MSP_EXP432E401Y_release_gcc.a(HwiPMSP432E4_freertos.o)
 .debug_aranges
                0x000005c0       0x28 C:/Users/Ravonte/workspace_v10/freertos_builds_MSP_EXP432E401Y_release_gcc/Debug\libfreertos_builds_MSP_EXP432E401Y_release_gcc.a(PowerMSP432E4_freertos.o)
 .debug_aranges
                0x000005e8       0x48 C:/Users/Ravonte/workspace_v10/freertos_builds_MSP_EXP432E401Y_release_gcc/Debug\libfreertos_builds_MSP_EXP432E401Y_release_gcc.a(SemaphoreP_freertos.o)
 .debug_aranges
                0x00000630       0x40 C:/Users/Ravonte/workspace_v10/freertos_builds_MSP_EXP432E401Y_release_gcc/Debug\libfreertos_builds_MSP_EXP432E401Y_release_gcc.a(SystemP_freertos.o)
 .debug_aranges
                0x00000670       0x58 C:/Users/Ravonte/workspace_v10/freertos_builds_MSP_EXP432E401Y_release_gcc/Debug\libfreertos_builds_MSP_EXP432E401Y_release_gcc.a(heap_4.o)
 .debug_aranges
                0x000006c8      0x118 C:/Users/Ravonte/workspace_v10/freertos_builds_MSP_EXP432E401Y_release_gcc/Debug\libfreertos_builds_MSP_EXP432E401Y_release_gcc.a(queue.o)
 .debug_aranges
                0x000007e0      0x238 C:/Users/Ravonte/workspace_v10/freertos_builds_MSP_EXP432E401Y_release_gcc/Debug\libfreertos_builds_MSP_EXP432E401Y_release_gcc.a(tasks.o)
 .debug_aranges
                0x00000a18       0xd8 C:/Users/Ravonte/workspace_v10/freertos_builds_MSP_EXP432E401Y_release_gcc/Debug\libfreertos_builds_MSP_EXP432E401Y_release_gcc.a(timers.o)
 .debug_aranges
                0x00000af0       0x88 C:/Users/Ravonte/workspace_v10/freertos_builds_MSP_EXP432E401Y_release_gcc/Debug\libfreertos_builds_MSP_EXP432E401Y_release_gcc.a(port.o)
 .debug_aranges
                0x00000b78       0x50 C:/Users/Ravonte/workspace_v10/freertos_builds_MSP_EXP432E401Y_release_gcc/Debug\libfreertos_builds_MSP_EXP432E401Y_release_gcc.a(startup_msp432e4_gcc.o)
 .debug_aranges
                0x00000bc8      0x108 C:/Users/Ravonte/workspace_v10/freertos_builds_MSP_EXP432E401Y_release_gcc/Debug\libfreertos_builds_MSP_EXP432E401Y_release_gcc.a(pthread.o)
 .debug_aranges
                0x00000cd0       0x30 C:/Users/Ravonte/workspace_v10/freertos_builds_MSP_EXP432E401Y_release_gcc/Debug\libfreertos_builds_MSP_EXP432E401Y_release_gcc.a(sleep.o)
 .debug_aranges
                0x00000d00       0x40 C:/Users/Ravonte/workspace_v10/freertos_builds_MSP_EXP432E401Y_release_gcc/Debug\libfreertos_builds_MSP_EXP432E401Y_release_gcc.a(list.o)
 .debug_aranges
                0x00000d40       0x60 C:/ti/simplelink_msp432e4_sdk_4_20_00_12/source\ti/devices/msp432e4/driverlib/lib/gcc/m4f/msp432e4_driverlib.a(fpu.o)
 .debug_aranges
                0x00000da0      0x1a0 C:/ti/simplelink_msp432e4_sdk_4_20_00_12/source\ti/devices/msp432e4/driverlib/lib/gcc/m4f/msp432e4_driverlib.a(gpio.o)
 .debug_aranges
                0x00000f40      0x1d0 C:/ti/simplelink_msp432e4_sdk_4_20_00_12/source\ti/devices/msp432e4/driverlib/lib/gcc/m4f/msp432e4_driverlib.a(i2c.o)
 .debug_aranges
                0x00001110       0xa0 C:/ti/simplelink_msp432e4_sdk_4_20_00_12/source\ti/devices/msp432e4/driverlib/lib/gcc/m4f/msp432e4_driverlib.a(interrupt.o)
 .debug_aranges
                0x000011b0      0x190 C:/ti/simplelink_msp432e4_sdk_4_20_00_12/source\ti/devices/msp432e4/driverlib/lib/gcc/m4f/msp432e4_driverlib.a(sysctl.o)
 .debug_aranges
                0x00001340      0x198 C:/ti/simplelink_msp432e4_sdk_4_20_00_12/source\ti/devices/msp432e4/driverlib/lib/gcc/m4f/msp432e4_driverlib.a(uart.o)

.debug_ranges   0x00000000     0x1458
 .debug_ranges  0x00000000       0x18 ./MLX90614.o
 .debug_ranges  0x00000018       0x18 ./syscfg/ti_drivers_config.o
 .debug_ranges  0x00000030       0x18 ./main_freertos.o
 .debug_ranges  0x00000048       0x50 C:/ti/simplelink_msp432e4_sdk_4_20_00_12/source\ti/display/lib/display.am4fg(Display.om4fg)
 .debug_ranges  0x00000098       0x68 C:/ti/simplelink_msp432e4_sdk_4_20_00_12/source\ti/display/lib/display.am4fg(DisplayUart.om4fg)
 .debug_ranges  0x00000100      0x120 C:/ti/simplelink_msp432e4_sdk_4_20_00_12/source\ti/drivers/lib/drivers_msp432e4.am4fg(GPIOMSP432E4.om4fg)
 .debug_ranges  0x00000220       0x48 C:/ti/simplelink_msp432e4_sdk_4_20_00_12/source\ti/drivers/lib/drivers_msp432e4.am4fg(I2C.om4fg)
 .debug_ranges  0x00000268      0x120 C:/ti/simplelink_msp432e4_sdk_4_20_00_12/source\ti/drivers/lib/drivers_msp432e4.am4fg(I2CMSP432E4.om4fg)
 .debug_ranges  0x00000388       0x48 C:/ti/simplelink_msp432e4_sdk_4_20_00_12/source\ti/drivers/lib/drivers_msp432e4.am4fg(PowerMSP432E4.om4fg)
 .debug_ranges  0x000003d0       0x60 C:/ti/simplelink_msp432e4_sdk_4_20_00_12/source\ti/drivers/lib/drivers_msp432e4.am4fg(UART.om4fg)
 .debug_ranges  0x00000430       0xf8 C:/ti/simplelink_msp432e4_sdk_4_20_00_12/source\ti/drivers/lib/drivers_msp432e4.am4fg(UARTMSP432E4.om4fg)
 .debug_ranges  0x00000528       0x40 C:/ti/simplelink_msp432e4_sdk_4_20_00_12/source\ti/drivers/lib/drivers_msp432e4.am4fg(RingBuf.om4fg)
 .debug_ranges  0x00000568       0x80 C:/Users/Ravonte/workspace_v10/freertos_builds_MSP_EXP432E401Y_release_gcc/Debug\libfreertos_builds_MSP_EXP432E401Y_release_gcc.a(ClockP_freertos.o)
 .debug_ranges  0x000005e8       0x78 C:/Users/Ravonte/workspace_v10/freertos_builds_MSP_EXP432E401Y_release_gcc/Debug\libfreertos_builds_MSP_EXP432E401Y_release_gcc.a(HwiPMSP432E4_freertos.o)
 .debug_ranges  0x00000660       0x18 C:/Users/Ravonte/workspace_v10/freertos_builds_MSP_EXP432E401Y_release_gcc/Debug\libfreertos_builds_MSP_EXP432E401Y_release_gcc.a(PowerMSP432E4_freertos.o)
 .debug_ranges  0x00000678       0x38 C:/Users/Ravonte/workspace_v10/freertos_builds_MSP_EXP432E401Y_release_gcc/Debug\libfreertos_builds_MSP_EXP432E401Y_release_gcc.a(SemaphoreP_freertos.o)
 .debug_ranges  0x000006b0       0x30 C:/Users/Ravonte/workspace_v10/freertos_builds_MSP_EXP432E401Y_release_gcc/Debug\libfreertos_builds_MSP_EXP432E401Y_release_gcc.a(SystemP_freertos.o)
 .debug_ranges  0x000006e0       0x48 C:/Users/Ravonte/workspace_v10/freertos_builds_MSP_EXP432E401Y_release_gcc/Debug\libfreertos_builds_MSP_EXP432E401Y_release_gcc.a(heap_4.o)
 .debug_ranges  0x00000728      0x108 C:/Users/Ravonte/workspace_v10/freertos_builds_MSP_EXP432E401Y_release_gcc/Debug\libfreertos_builds_MSP_EXP432E401Y_release_gcc.a(queue.o)
 .debug_ranges  0x00000830      0x228 C:/Users/Ravonte/workspace_v10/freertos_builds_MSP_EXP432E401Y_release_gcc/Debug\libfreertos_builds_MSP_EXP432E401Y_release_gcc.a(tasks.o)
 .debug_ranges  0x00000a58       0xc8 C:/Users/Ravonte/workspace_v10/freertos_builds_MSP_EXP432E401Y_release_gcc/Debug\libfreertos_builds_MSP_EXP432E401Y_release_gcc.a(timers.o)
 .debug_ranges  0x00000b20       0x78 C:/Users/Ravonte/workspace_v10/freertos_builds_MSP_EXP432E401Y_release_gcc/Debug\libfreertos_builds_MSP_EXP432E401Y_release_gcc.a(port.o)
 .debug_ranges  0x00000b98       0x40 C:/Users/Ravonte/workspace_v10/freertos_builds_MSP_EXP432E401Y_release_gcc/Debug\libfreertos_builds_MSP_EXP432E401Y_release_gcc.a(startup_msp432e4_gcc.o)
 .debug_ranges  0x00000bd8       0xf8 C:/Users/Ravonte/workspace_v10/freertos_builds_MSP_EXP432E401Y_release_gcc/Debug\libfreertos_builds_MSP_EXP432E401Y_release_gcc.a(pthread.o)
 .debug_ranges  0x00000cd0       0x20 C:/Users/Ravonte/workspace_v10/freertos_builds_MSP_EXP432E401Y_release_gcc/Debug\libfreertos_builds_MSP_EXP432E401Y_release_gcc.a(sleep.o)
 .debug_ranges  0x00000cf0       0x30 C:/Users/Ravonte/workspace_v10/freertos_builds_MSP_EXP432E401Y_release_gcc/Debug\libfreertos_builds_MSP_EXP432E401Y_release_gcc.a(list.o)
 .debug_ranges  0x00000d20       0x50 C:/ti/simplelink_msp432e4_sdk_4_20_00_12/source\ti/devices/msp432e4/driverlib/lib/gcc/m4f/msp432e4_driverlib.a(fpu.o)
 .debug_ranges  0x00000d70      0x190 C:/ti/simplelink_msp432e4_sdk_4_20_00_12/source\ti/devices/msp432e4/driverlib/lib/gcc/m4f/msp432e4_driverlib.a(gpio.o)
 .debug_ranges  0x00000f00      0x1c0 C:/ti/simplelink_msp432e4_sdk_4_20_00_12/source\ti/devices/msp432e4/driverlib/lib/gcc/m4f/msp432e4_driverlib.a(i2c.o)
 .debug_ranges  0x000010c0       0x90 C:/ti/simplelink_msp432e4_sdk_4_20_00_12/source\ti/devices/msp432e4/driverlib/lib/gcc/m4f/msp432e4_driverlib.a(interrupt.o)
 .debug_ranges  0x00001150      0x180 C:/ti/simplelink_msp432e4_sdk_4_20_00_12/source\ti/devices/msp432e4/driverlib/lib/gcc/m4f/msp432e4_driverlib.a(sysctl.o)
 .debug_ranges  0x000012d0      0x188 C:/ti/simplelink_msp432e4_sdk_4_20_00_12/source\ti/devices/msp432e4/driverlib/lib/gcc/m4f/msp432e4_driverlib.a(uart.o)

.debug_line     0x00000000     0xeb94
 .debug_line    0x00000000      0x3f7 ./MLX90614.o
 .debug_line    0x000003f7      0x5e2 ./syscfg/ti_drivers_config.o
 .debug_line    0x000009d9      0x261 ./main_freertos.o
 .debug_line    0x00000c3a      0x46c C:/ti/simplelink_msp432e4_sdk_4_20_00_12/source\ti/display/lib/display.am4fg(Display.om4fg)
 .debug_line    0x000010a6      0x89b C:/ti/simplelink_msp432e4_sdk_4_20_00_12/source\ti/display/lib/display.am4fg(DisplayUart.om4fg)
 .debug_line    0x00001941      0xdcf C:/ti/simplelink_msp432e4_sdk_4_20_00_12/source\ti/drivers/lib/drivers_msp432e4.am4fg(GPIOMSP432E4.om4fg)
 .debug_line    0x00002710      0x54f C:/ti/simplelink_msp432e4_sdk_4_20_00_12/source\ti/drivers/lib/drivers_msp432e4.am4fg(I2C.om4fg)
 .debug_line    0x00002c5f     0x1230 C:/ti/simplelink_msp432e4_sdk_4_20_00_12/source\ti/drivers/lib/drivers_msp432e4.am4fg(I2CMSP432E4.om4fg)
 .debug_line    0x00003e8f      0x7d7 C:/ti/simplelink_msp432e4_sdk_4_20_00_12/source\ti/drivers/lib/drivers_msp432e4.am4fg(PowerMSP432E4.om4fg)
 .debug_line    0x00004666      0x593 C:/ti/simplelink_msp432e4_sdk_4_20_00_12/source\ti/drivers/lib/drivers_msp432e4.am4fg(UART.om4fg)
 .debug_line    0x00004bf9     0x1727 C:/ti/simplelink_msp432e4_sdk_4_20_00_12/source\ti/drivers/lib/drivers_msp432e4.am4fg(UARTMSP432E4.om4fg)
 .debug_line    0x00006320      0x312 C:/ti/simplelink_msp432e4_sdk_4_20_00_12/source\ti/drivers/lib/drivers_msp432e4.am4fg(RingBuf.om4fg)
 .debug_line    0x00006632      0x57e C:/Users/Ravonte/workspace_v10/freertos_builds_MSP_EXP432E401Y_release_gcc/Debug\libfreertos_builds_MSP_EXP432E401Y_release_gcc.a(ClockP_freertos.o)
 .debug_line    0x00006bb0      0x4c0 C:/Users/Ravonte/workspace_v10/freertos_builds_MSP_EXP432E401Y_release_gcc/Debug\libfreertos_builds_MSP_EXP432E401Y_release_gcc.a(HwiPMSP432E4_freertos.o)
 .debug_line    0x00007070      0x286 C:/Users/Ravonte/workspace_v10/freertos_builds_MSP_EXP432E401Y_release_gcc/Debug\libfreertos_builds_MSP_EXP432E401Y_release_gcc.a(PowerMSP432E4_freertos.o)
 .debug_line    0x000072f6      0x3e4 C:/Users/Ravonte/workspace_v10/freertos_builds_MSP_EXP432E401Y_release_gcc/Debug\libfreertos_builds_MSP_EXP432E401Y_release_gcc.a(SemaphoreP_freertos.o)
 .debug_line    0x000076da      0x59d C:/Users/Ravonte/workspace_v10/freertos_builds_MSP_EXP432E401Y_release_gcc/Debug\libfreertos_builds_MSP_EXP432E401Y_release_gcc.a(SystemP_freertos.o)
 .debug_line    0x00007c77      0x5bc C:/Users/Ravonte/workspace_v10/freertos_builds_MSP_EXP432E401Y_release_gcc/Debug\libfreertos_builds_MSP_EXP432E401Y_release_gcc.a(heap_4.o)
 .debug_line    0x00008233      0xf5a C:/Users/Ravonte/workspace_v10/freertos_builds_MSP_EXP432E401Y_release_gcc/Debug\libfreertos_builds_MSP_EXP432E401Y_release_gcc.a(queue.o)
 .debug_line    0x0000918d     0x1822 C:/Users/Ravonte/workspace_v10/freertos_builds_MSP_EXP432E401Y_release_gcc/Debug\libfreertos_builds_MSP_EXP432E401Y_release_gcc.a(tasks.o)
 .debug_line    0x0000a9af      0x88a C:/Users/Ravonte/workspace_v10/freertos_builds_MSP_EXP432E401Y_release_gcc/Debug\libfreertos_builds_MSP_EXP432E401Y_release_gcc.a(timers.o)
 .debug_line    0x0000b239      0x662 C:/Users/Ravonte/workspace_v10/freertos_builds_MSP_EXP432E401Y_release_gcc/Debug\libfreertos_builds_MSP_EXP432E401Y_release_gcc.a(port.o)
 .debug_line    0x0000b89b      0x2e4 C:/Users/Ravonte/workspace_v10/freertos_builds_MSP_EXP432E401Y_release_gcc/Debug\libfreertos_builds_MSP_EXP432E401Y_release_gcc.a(startup_msp432e4_gcc.o)
 .debug_line    0x0000bb7f      0x9ca C:/Users/Ravonte/workspace_v10/freertos_builds_MSP_EXP432E401Y_release_gcc/Debug\libfreertos_builds_MSP_EXP432E401Y_release_gcc.a(pthread.o)
 .debug_line    0x0000c549      0x336 C:/Users/Ravonte/workspace_v10/freertos_builds_MSP_EXP432E401Y_release_gcc/Debug\libfreertos_builds_MSP_EXP432E401Y_release_gcc.a(sleep.o)
 .debug_line    0x0000c87f      0x39f C:/Users/Ravonte/workspace_v10/freertos_builds_MSP_EXP432E401Y_release_gcc/Debug\libfreertos_builds_MSP_EXP432E401Y_release_gcc.a(list.o)
 .debug_line    0x0000cc1e      0x1a8 C:/ti/simplelink_msp432e4_sdk_4_20_00_12/source\ti/devices/msp432e4/driverlib/lib/gcc/m4f/msp432e4_driverlib.a(fpu.o)
 .debug_line    0x0000cdc6      0x8c3 C:/ti/simplelink_msp432e4_sdk_4_20_00_12/source\ti/devices/msp432e4/driverlib/lib/gcc/m4f/msp432e4_driverlib.a(gpio.o)
 .debug_line    0x0000d689      0x666 C:/ti/simplelink_msp432e4_sdk_4_20_00_12/source\ti/devices/msp432e4/driverlib/lib/gcc/m4f/msp432e4_driverlib.a(i2c.o)
 .debug_line    0x0000dcef      0x2f8 C:/ti/simplelink_msp432e4_sdk_4_20_00_12/source\ti/devices/msp432e4/driverlib/lib/gcc/m4f/msp432e4_driverlib.a(interrupt.o)
 .debug_line    0x0000dfe7      0x5b6 C:/ti/simplelink_msp432e4_sdk_4_20_00_12/source\ti/devices/msp432e4/driverlib/lib/gcc/m4f/msp432e4_driverlib.a(sysctl.o)
 .debug_line    0x0000e59d      0x5f7 C:/ti/simplelink_msp432e4_sdk_4_20_00_12/source\ti/devices/msp432e4/driverlib/lib/gcc/m4f/msp432e4_driverlib.a(uart.o)

.debug_str      0x00000000     0x70d4
 .debug_str     0x00000000      0x601 ./MLX90614.o
                                0x6e6 (size before relaxing)
 .debug_str     0x00000601      0xb04 ./syscfg/ti_drivers_config.o
                               0x112f (size before relaxing)
 .debug_str     0x00001105      0x46c ./main_freertos.o
                                0x6b4 (size before relaxing)
 .debug_str     0x00001571      0x21b C:/ti/simplelink_msp432e4_sdk_4_20_00_12/source\ti/display/lib/display.am4fg(Display.om4fg)
                                0x4c0 (size before relaxing)
 .debug_str     0x0000178c      0x2f5 C:/ti/simplelink_msp432e4_sdk_4_20_00_12/source\ti/display/lib/display.am4fg(DisplayUart.om4fg)
                                0xf7a (size before relaxing)
 .debug_str     0x00001a81      0x5be C:/ti/simplelink_msp432e4_sdk_4_20_00_12/source\ti/drivers/lib/drivers_msp432e4.am4fg(GPIOMSP432E4.om4fg)
                                0xd38 (size before relaxing)
 .debug_str     0x0000203f       0xb5 C:/ti/simplelink_msp432e4_sdk_4_20_00_12/source\ti/drivers/lib/drivers_msp432e4.am4fg(I2C.om4fg)
                                0xa28 (size before relaxing)
 .debug_str     0x000020f4      0x4be C:/ti/simplelink_msp432e4_sdk_4_20_00_12/source\ti/drivers/lib/drivers_msp432e4.am4fg(I2CMSP432E4.om4fg)
                               0x1095 (size before relaxing)
 .debug_str     0x000025b2      0x145 C:/ti/simplelink_msp432e4_sdk_4_20_00_12/source\ti/drivers/lib/drivers_msp432e4.am4fg(PowerMSP432E4.om4fg)
                                0x4da (size before relaxing)
 .debug_str     0x000026f7       0x68 C:/ti/simplelink_msp432e4_sdk_4_20_00_12/source\ti/drivers/lib/drivers_msp432e4.am4fg(UART.om4fg)
                                0xb6f (size before relaxing)
 .debug_str     0x0000275f      0x455 C:/ti/simplelink_msp432e4_sdk_4_20_00_12/source\ti/drivers/lib/drivers_msp432e4.am4fg(UARTMSP432E4.om4fg)
                                0xecd (size before relaxing)
 .debug_str     0x00002bb4       0x5c C:/ti/simplelink_msp432e4_sdk_4_20_00_12/source\ti/drivers/lib/drivers_msp432e4.am4fg(RingBuf.om4fg)
                                0x2fe (size before relaxing)
 .debug_str     0x00002c10      0x31c C:/Users/Ravonte/workspace_v10/freertos_builds_MSP_EXP432E401Y_release_gcc/Debug\libfreertos_builds_MSP_EXP432E401Y_release_gcc.a(ClockP_freertos.o)
                                0x8eb (size before relaxing)
 .debug_str     0x00002f2c      0x2aa C:/Users/Ravonte/workspace_v10/freertos_builds_MSP_EXP432E401Y_release_gcc/Debug\libfreertos_builds_MSP_EXP432E401Y_release_gcc.a(HwiPMSP432E4_freertos.o)
                                0x9e9 (size before relaxing)
 .debug_str     0x000031d6       0x9d C:/Users/Ravonte/workspace_v10/freertos_builds_MSP_EXP432E401Y_release_gcc/Debug\libfreertos_builds_MSP_EXP432E401Y_release_gcc.a(PowerMSP432E4_freertos.o)
                                0x69e (size before relaxing)
 .debug_str     0x00003273       0xc8 C:/Users/Ravonte/workspace_v10/freertos_builds_MSP_EXP432E401Y_release_gcc/Debug\libfreertos_builds_MSP_EXP432E401Y_release_gcc.a(SemaphoreP_freertos.o)
                                0x83a (size before relaxing)
 .debug_str     0x0000333b       0xc2 C:/Users/Ravonte/workspace_v10/freertos_builds_MSP_EXP432E401Y_release_gcc/Debug\libfreertos_builds_MSP_EXP432E401Y_release_gcc.a(SystemP_freertos.o)
                                0x73d (size before relaxing)
 .debug_str     0x000033fd      0x303 C:/Users/Ravonte/workspace_v10/freertos_builds_MSP_EXP432E401Y_release_gcc/Debug\libfreertos_builds_MSP_EXP432E401Y_release_gcc.a(heap_4.o)
                                0x947 (size before relaxing)
 .debug_str     0x00003700      0x6a1 C:/Users/Ravonte/workspace_v10/freertos_builds_MSP_EXP432E401Y_release_gcc/Debug\libfreertos_builds_MSP_EXP432E401Y_release_gcc.a(queue.o)
                                0xd96 (size before relaxing)
 .debug_str     0x00003da1      0xf47 C:/Users/Ravonte/workspace_v10/freertos_builds_MSP_EXP432E401Y_release_gcc/Debug\libfreertos_builds_MSP_EXP432E401Y_release_gcc.a(tasks.o)
                               0x17b4 (size before relaxing)
 .debug_str     0x00004ce8      0x46a C:/Users/Ravonte/workspace_v10/freertos_builds_MSP_EXP432E401Y_release_gcc/Debug\libfreertos_builds_MSP_EXP432E401Y_release_gcc.a(timers.o)
                                0xc3e (size before relaxing)
 .debug_str     0x00005152      0x2f0 C:/Users/Ravonte/workspace_v10/freertos_builds_MSP_EXP432E401Y_release_gcc/Debug\libfreertos_builds_MSP_EXP432E401Y_release_gcc.a(port.o)
                                0x9ec (size before relaxing)
 .debug_str     0x00005442      0x139 C:/Users/Ravonte/workspace_v10/freertos_builds_MSP_EXP432E401Y_release_gcc/Debug\libfreertos_builds_MSP_EXP432E401Y_release_gcc.a(startup_msp432e4_gcc.o)
                                0x346 (size before relaxing)
 .debug_str     0x0000557b      0x49e C:/Users/Ravonte/workspace_v10/freertos_builds_MSP_EXP432E401Y_release_gcc/Debug\libfreertos_builds_MSP_EXP432E401Y_release_gcc.a(pthread.o)
                                0xc2c (size before relaxing)
 .debug_str     0x00005a19       0xb6 C:/Users/Ravonte/workspace_v10/freertos_builds_MSP_EXP432E401Y_release_gcc/Debug\libfreertos_builds_MSP_EXP432E401Y_release_gcc.a(sleep.o)
                                0x724 (size before relaxing)
 .debug_str     0x00005acf       0xca C:/Users/Ravonte/workspace_v10/freertos_builds_MSP_EXP432E401Y_release_gcc/Debug\libfreertos_builds_MSP_EXP432E401Y_release_gcc.a(list.o)
                                0x77d (size before relaxing)
 .debug_str     0x00005b99      0x203 C:/ti/simplelink_msp432e4_sdk_4_20_00_12/source\ti/devices/msp432e4/driverlib/lib/gcc/m4f/msp432e4_driverlib.a(fpu.o)
                                0x29b (size before relaxing)
 .debug_str     0x00005d9c      0x467 C:/ti/simplelink_msp432e4_sdk_4_20_00_12/source\ti/devices/msp432e4/driverlib/lib/gcc/m4f/msp432e4_driverlib.a(gpio.o)
                                0x713 (size before relaxing)
 .debug_str     0x00006203      0x3d7 C:/ti/simplelink_msp432e4_sdk_4_20_00_12/source\ti/devices/msp432e4/driverlib/lib/gcc/m4f/msp432e4_driverlib.a(i2c.o)
                                0x74a (size before relaxing)
 .debug_str     0x000065da      0x220 C:/ti/simplelink_msp432e4_sdk_4_20_00_12/source\ti/devices/msp432e4/driverlib/lib/gcc/m4f/msp432e4_driverlib.a(interrupt.o)
                                0x401 (size before relaxing)
 .debug_str     0x000067fa      0x566 C:/ti/simplelink_msp432e4_sdk_4_20_00_12/source\ti/devices/msp432e4/driverlib/lib/gcc/m4f/msp432e4_driverlib.a(sysctl.o)
                                0x82d (size before relaxing)
 .debug_str     0x00006d60      0x374 C:/ti/simplelink_msp432e4_sdk_4_20_00_12/source\ti/devices/msp432e4/driverlib/lib/gcc/m4f/msp432e4_driverlib.a(uart.o)
                                0x6d8 (size before relaxing)

.comment        0x00000000       0xf7
 .comment       0x00000000       0x79 ./MLX90614.o
                                 0x7a (size before relaxing)
 .comment       0x00000079       0x7a ./syscfg/ti_drivers_config.o
 .comment       0x00000079       0x7a ./main_freertos.o
 .comment       0x00000079       0x7a C:/ti/simplelink_msp432e4_sdk_4_20_00_12/source\ti/display/lib/display.am4fg(Display.om4fg)
 .comment       0x00000079       0x7a C:/ti/simplelink_msp432e4_sdk_4_20_00_12/source\ti/display/lib/display.am4fg(DisplayUart.om4fg)
 .comment       0x00000079       0x7a C:/ti/simplelink_msp432e4_sdk_4_20_00_12/source\ti/drivers/lib/drivers_msp432e4.am4fg(GPIOMSP432E4.om4fg)
 .comment       0x00000079       0x7a C:/ti/simplelink_msp432e4_sdk_4_20_00_12/source\ti/drivers/lib/drivers_msp432e4.am4fg(I2C.om4fg)
 .comment       0x00000079       0x7a C:/ti/simplelink_msp432e4_sdk_4_20_00_12/source\ti/drivers/lib/drivers_msp432e4.am4fg(I2CMSP432E4.om4fg)
 .comment       0x00000079       0x7a C:/ti/simplelink_msp432e4_sdk_4_20_00_12/source\ti/drivers/lib/drivers_msp432e4.am4fg(PowerMSP432E4.om4fg)
 .comment       0x00000079       0x7a C:/ti/simplelink_msp432e4_sdk_4_20_00_12/source\ti/drivers/lib/drivers_msp432e4.am4fg(UART.om4fg)
 .comment       0x00000079       0x7a C:/ti/simplelink_msp432e4_sdk_4_20_00_12/source\ti/drivers/lib/drivers_msp432e4.am4fg(UARTMSP432E4.om4fg)
 .comment       0x00000079       0x7a C:/ti/simplelink_msp432e4_sdk_4_20_00_12/source\ti/drivers/lib/drivers_msp432e4.am4fg(RingBuf.om4fg)
 .comment       0x00000079       0x7a C:/Users/Ravonte/workspace_v10/freertos_builds_MSP_EXP432E401Y_release_gcc/Debug\libfreertos_builds_MSP_EXP432E401Y_release_gcc.a(ClockP_freertos.o)
 .comment       0x00000079       0x7a C:/Users/Ravonte/workspace_v10/freertos_builds_MSP_EXP432E401Y_release_gcc/Debug\libfreertos_builds_MSP_EXP432E401Y_release_gcc.a(HwiPMSP432E4_freertos.o)
 .comment       0x00000079       0x7a C:/Users/Ravonte/workspace_v10/freertos_builds_MSP_EXP432E401Y_release_gcc/Debug\libfreertos_builds_MSP_EXP432E401Y_release_gcc.a(PowerMSP432E4_freertos.o)
 .comment       0x00000079       0x7a C:/Users/Ravonte/workspace_v10/freertos_builds_MSP_EXP432E401Y_release_gcc/Debug\libfreertos_builds_MSP_EXP432E401Y_release_gcc.a(SemaphoreP_freertos.o)
 .comment       0x00000079       0x7a C:/Users/Ravonte/workspace_v10/freertos_builds_MSP_EXP432E401Y_release_gcc/Debug\libfreertos_builds_MSP_EXP432E401Y_release_gcc.a(SystemP_freertos.o)
 .comment       0x00000079       0x7a C:/Users/Ravonte/workspace_v10/freertos_builds_MSP_EXP432E401Y_release_gcc/Debug\libfreertos_builds_MSP_EXP432E401Y_release_gcc.a(heap_4.o)
 .comment       0x00000079       0x7a C:/Users/Ravonte/workspace_v10/freertos_builds_MSP_EXP432E401Y_release_gcc/Debug\libfreertos_builds_MSP_EXP432E401Y_release_gcc.a(queue.o)
 .comment       0x00000079       0x7a C:/Users/Ravonte/workspace_v10/freertos_builds_MSP_EXP432E401Y_release_gcc/Debug\libfreertos_builds_MSP_EXP432E401Y_release_gcc.a(tasks.o)
 .comment       0x00000079       0x7a C:/Users/Ravonte/workspace_v10/freertos_builds_MSP_EXP432E401Y_release_gcc/Debug\libfreertos_builds_MSP_EXP432E401Y_release_gcc.a(timers.o)
 .comment       0x00000079       0x7a C:/Users/Ravonte/workspace_v10/freertos_builds_MSP_EXP432E401Y_release_gcc/Debug\libfreertos_builds_MSP_EXP432E401Y_release_gcc.a(port.o)
 .comment       0x00000079       0x7a C:/Users/Ravonte/workspace_v10/freertos_builds_MSP_EXP432E401Y_release_gcc/Debug\libfreertos_builds_MSP_EXP432E401Y_release_gcc.a(startup_msp432e4_gcc.o)
 .comment       0x00000079       0x7a C:/Users/Ravonte/workspace_v10/freertos_builds_MSP_EXP432E401Y_release_gcc/Debug\libfreertos_builds_MSP_EXP432E401Y_release_gcc.a(pthread.o)
 .comment       0x00000079       0x7a C:/Users/Ravonte/workspace_v10/freertos_builds_MSP_EXP432E401Y_release_gcc/Debug\libfreertos_builds_MSP_EXP432E401Y_release_gcc.a(sleep.o)
 .comment       0x00000079       0x7a C:/Users/Ravonte/workspace_v10/freertos_builds_MSP_EXP432E401Y_release_gcc/Debug\libfreertos_builds_MSP_EXP432E401Y_release_gcc.a(list.o)
 .comment       0x00000079       0x7e C:/ti/simplelink_msp432e4_sdk_4_20_00_12/source\ti/devices/msp432e4/driverlib/lib/gcc/m4f/msp432e4_driverlib.a(fpu.o)
                                 0x7f (size before relaxing)
 .comment       0x000000f7       0x7f C:/ti/simplelink_msp432e4_sdk_4_20_00_12/source\ti/devices/msp432e4/driverlib/lib/gcc/m4f/msp432e4_driverlib.a(gpio.o)
 .comment       0x000000f7       0x7f C:/ti/simplelink_msp432e4_sdk_4_20_00_12/source\ti/devices/msp432e4/driverlib/lib/gcc/m4f/msp432e4_driverlib.a(i2c.o)
 .comment       0x000000f7       0x7f C:/ti/simplelink_msp432e4_sdk_4_20_00_12/source\ti/devices/msp432e4/driverlib/lib/gcc/m4f/msp432e4_driverlib.a(interrupt.o)
 .comment       0x000000f7       0x7f C:/ti/simplelink_msp432e4_sdk_4_20_00_12/source\ti/devices/msp432e4/driverlib/lib/gcc/m4f/msp432e4_driverlib.a(sysctl.o)
 .comment       0x000000f7       0x7f C:/ti/simplelink_msp432e4_sdk_4_20_00_12/source\ti/devices/msp432e4/driverlib/lib/gcc/m4f/msp432e4_driverlib.a(uart.o)

.ARM.attributes
                0x00000000       0x32
 .ARM.attributes
                0x00000000       0x34 ./MLX90614.o
 .ARM.attributes
                0x00000034       0x34 ./syscfg/ti_drivers_config.o
 .ARM.attributes
                0x00000068       0x34 ./main_freertos.o
 .ARM.attributes
                0x0000009c       0x34 C:/ti/simplelink_msp432e4_sdk_4_20_00_12/source\ti/display/lib/display.am4fg(Display.om4fg)
 .ARM.attributes
                0x000000d0       0x34 C:/ti/simplelink_msp432e4_sdk_4_20_00_12/source\ti/display/lib/display.am4fg(DisplayUart.om4fg)
 .ARM.attributes
                0x00000104       0x34 C:/ti/simplelink_msp432e4_sdk_4_20_00_12/source\ti/drivers/lib/drivers_msp432e4.am4fg(GPIOMSP432E4.om4fg)
 .ARM.attributes
                0x00000138       0x34 C:/ti/simplelink_msp432e4_sdk_4_20_00_12/source\ti/drivers/lib/drivers_msp432e4.am4fg(I2C.om4fg)
 .ARM.attributes
                0x0000016c       0x34 C:/ti/simplelink_msp432e4_sdk_4_20_00_12/source\ti/drivers/lib/drivers_msp432e4.am4fg(I2CMSP432E4.om4fg)
 .ARM.attributes
                0x000001a0       0x34 C:/ti/simplelink_msp432e4_sdk_4_20_00_12/source\ti/drivers/lib/drivers_msp432e4.am4fg(PowerMSP432E4.om4fg)
 .ARM.attributes
                0x000001d4       0x34 C:/ti/simplelink_msp432e4_sdk_4_20_00_12/source\ti/drivers/lib/drivers_msp432e4.am4fg(UART.om4fg)
 .ARM.attributes
                0x00000208       0x34 C:/ti/simplelink_msp432e4_sdk_4_20_00_12/source\ti/drivers/lib/drivers_msp432e4.am4fg(UARTMSP432E4.om4fg)
 .ARM.attributes
                0x0000023c       0x34 C:/ti/simplelink_msp432e4_sdk_4_20_00_12/source\ti/drivers/lib/drivers_msp432e4.am4fg(RingBuf.om4fg)
 .ARM.attributes
                0x00000270       0x34 C:/Users/Ravonte/workspace_v10/freertos_builds_MSP_EXP432E401Y_release_gcc/Debug\libfreertos_builds_MSP_EXP432E401Y_release_gcc.a(ClockP_freertos.o)
 .ARM.attributes
                0x000002a4       0x34 C:/Users/Ravonte/workspace_v10/freertos_builds_MSP_EXP432E401Y_release_gcc/Debug\libfreertos_builds_MSP_EXP432E401Y_release_gcc.a(HwiPMSP432E4_freertos.o)
 .ARM.attributes
                0x000002d8       0x34 C:/Users/Ravonte/workspace_v10/freertos_builds_MSP_EXP432E401Y_release_gcc/Debug\libfreertos_builds_MSP_EXP432E401Y_release_gcc.a(PowerMSP432E4_freertos.o)
 .ARM.attributes
                0x0000030c       0x34 C:/Users/Ravonte/workspace_v10/freertos_builds_MSP_EXP432E401Y_release_gcc/Debug\libfreertos_builds_MSP_EXP432E401Y_release_gcc.a(SemaphoreP_freertos.o)
 .ARM.attributes
                0x00000340       0x34 C:/Users/Ravonte/workspace_v10/freertos_builds_MSP_EXP432E401Y_release_gcc/Debug\libfreertos_builds_MSP_EXP432E401Y_release_gcc.a(SystemP_freertos.o)
 .ARM.attributes
                0x00000374       0x34 C:/Users/Ravonte/workspace_v10/freertos_builds_MSP_EXP432E401Y_release_gcc/Debug\libfreertos_builds_MSP_EXP432E401Y_release_gcc.a(heap_4.o)
 .ARM.attributes
                0x000003a8       0x34 C:/Users/Ravonte/workspace_v10/freertos_builds_MSP_EXP432E401Y_release_gcc/Debug\libfreertos_builds_MSP_EXP432E401Y_release_gcc.a(queue.o)
 .ARM.attributes
                0x000003dc       0x34 C:/Users/Ravonte/workspace_v10/freertos_builds_MSP_EXP432E401Y_release_gcc/Debug\libfreertos_builds_MSP_EXP432E401Y_release_gcc.a(tasks.o)
 .ARM.attributes
                0x00000410       0x34 C:/Users/Ravonte/workspace_v10/freertos_builds_MSP_EXP432E401Y_release_gcc/Debug\libfreertos_builds_MSP_EXP432E401Y_release_gcc.a(timers.o)
 .ARM.attributes
                0x00000444       0x34 C:/Users/Ravonte/workspace_v10/freertos_builds_MSP_EXP432E401Y_release_gcc/Debug\libfreertos_builds_MSP_EXP432E401Y_release_gcc.a(port.o)
 .ARM.attributes
                0x00000478       0x34 C:/Users/Ravonte/workspace_v10/freertos_builds_MSP_EXP432E401Y_release_gcc/Debug\libfreertos_builds_MSP_EXP432E401Y_release_gcc.a(startup_msp432e4_gcc.o)
 .ARM.attributes
                0x000004ac       0x34 C:/Users/Ravonte/workspace_v10/freertos_builds_MSP_EXP432E401Y_release_gcc/Debug\libfreertos_builds_MSP_EXP432E401Y_release_gcc.a(pthread.o)
 .ARM.attributes
                0x000004e0       0x34 C:/Users/Ravonte/workspace_v10/freertos_builds_MSP_EXP432E401Y_release_gcc/Debug\libfreertos_builds_MSP_EXP432E401Y_release_gcc.a(sleep.o)
 .ARM.attributes
                0x00000514       0x34 C:/Users/Ravonte/workspace_v10/freertos_builds_MSP_EXP432E401Y_release_gcc/Debug\libfreertos_builds_MSP_EXP432E401Y_release_gcc.a(list.o)
 .ARM.attributes
                0x00000548       0x39 C:/ti/simplelink_msp432e4_sdk_4_20_00_12/source\ti/devices/msp432e4/driverlib/lib/gcc/m4f/msp432e4_driverlib.a(fpu.o)
 .ARM.attributes
                0x00000581       0x39 C:/ti/simplelink_msp432e4_sdk_4_20_00_12/source\ti/devices/msp432e4/driverlib/lib/gcc/m4f/msp432e4_driverlib.a(gpio.o)
 .ARM.attributes
                0x000005ba       0x39 C:/ti/simplelink_msp432e4_sdk_4_20_00_12/source\ti/devices/msp432e4/driverlib/lib/gcc/m4f/msp432e4_driverlib.a(i2c.o)
 .ARM.attributes
                0x000005f3       0x39 C:/ti/simplelink_msp432e4_sdk_4_20_00_12/source\ti/devices/msp432e4/driverlib/lib/gcc/m4f/msp432e4_driverlib.a(interrupt.o)
 .ARM.attributes
                0x0000062c       0x39 C:/ti/simplelink_msp432e4_sdk_4_20_00_12/source\ti/devices/msp432e4/driverlib/lib/gcc/m4f/msp432e4_driverlib.a(sysctl.o)
 .ARM.attributes
                0x00000665       0x39 C:/ti/simplelink_msp432e4_sdk_4_20_00_12/source\ti/devices/msp432e4/driverlib/lib/gcc/m4f/msp432e4_driverlib.a(uart.o)
 .ARM.attributes
                0x0000069e       0x1e c:/ti/ccs1020/ccs/tools/compiler/gcc-arm-none-eabi-9-2019-q4-major/bin/../lib/gcc/arm-none-eabi/9.2.1/thumb/v7e-m+fp/hard\libgcc.a(_arm_muldf3.o)
 .ARM.attributes
                0x000006bc       0x1e c:/ti/ccs1020/ccs/tools/compiler/gcc-arm-none-eabi-9-2019-q4-major/bin/../lib/gcc/arm-none-eabi/9.2.1/thumb/v7e-m+fp/hard\libgcc.a(_arm_addsubdf3.o)
 .ARM.attributes
                0x000006da       0x1e c:/ti/ccs1020/ccs/tools/compiler/gcc-arm-none-eabi-9-2019-q4-major/bin/../lib/gcc/arm-none-eabi/9.2.1/thumb/v7e-m+fp/hard\libgcc.a(_arm_cmpdf2.o)
 .ARM.attributes
                0x000006f8       0x1e c:/ti/ccs1020/ccs/tools/compiler/gcc-arm-none-eabi-9-2019-q4-major/bin/../lib/gcc/arm-none-eabi/9.2.1/thumb/v7e-m+fp/hard\libgcc.a(_arm_fixdfsi.o)
 .ARM.attributes
                0x00000716       0x1e c:/ti/ccs1020/ccs/tools/compiler/gcc-arm-none-eabi-9-2019-q4-major/bin/../lib/gcc/arm-none-eabi/9.2.1/thumb/v7e-m+fp/hard\libgcc.a(_arm_fixunsdfsi.o)
 .ARM.attributes
                0x00000734       0x34 c:/ti/ccs1020/ccs/tools/compiler/gcc-arm-none-eabi-9-2019-q4-major/bin/../lib/gcc/arm-none-eabi/9.2.1/../../../../arm-none-eabi/lib/thumb/v7e-m+fp/hard\libc_nano.a(lib_a-findfp.o)
 .ARM.attributes
                0x00000768       0x32 c:/ti/ccs1020/ccs/tools/compiler/gcc-arm-none-eabi-9-2019-q4-major/bin/../lib/gcc/arm-none-eabi/9.2.1/../../../../arm-none-eabi/lib/thumb/v7e-m+fp/hard\libc_nano.a(lib_a-impure.o)
 .ARM.attributes
                0x0000079a       0x34 c:/ti/ccs1020/ccs/tools/compiler/gcc-arm-none-eabi-9-2019-q4-major/bin/../lib/gcc/arm-none-eabi/9.2.1/../../../../arm-none-eabi/lib/thumb/v7e-m+fp/hard\libc_nano.a(lib_a-lock.o)
 .ARM.attributes
                0x000007ce       0x34 c:/ti/ccs1020/ccs/tools/compiler/gcc-arm-none-eabi-9-2019-q4-major/bin/../lib/gcc/arm-none-eabi/9.2.1/../../../../arm-none-eabi/lib/thumb/v7e-m+fp/hard\libc_nano.a(lib_a-memcpy-stub.o)
 .ARM.attributes
                0x00000802       0x34 c:/ti/ccs1020/ccs/tools/compiler/gcc-arm-none-eabi-9-2019-q4-major/bin/../lib/gcc/arm-none-eabi/9.2.1/../../../../arm-none-eabi/lib/thumb/v7e-m+fp/hard\libc_nano.a(lib_a-memset.o)
 .ARM.attributes
                0x00000836       0x34 c:/ti/ccs1020/ccs/tools/compiler/gcc-arm-none-eabi-9-2019-q4-major/bin/../lib/gcc/arm-none-eabi/9.2.1/../../../../arm-none-eabi/lib/thumb/v7e-m+fp/hard\libc_nano.a(lib_a-nano-mallocr.o)
 .ARM.attributes
                0x0000086a       0x34 c:/ti/ccs1020/ccs/tools/compiler/gcc-arm-none-eabi-9-2019-q4-major/bin/../lib/gcc/arm-none-eabi/9.2.1/../../../../arm-none-eabi/lib/thumb/v7e-m+fp/hard\libc_nano.a(lib_a-reent.o)
 .ARM.attributes
                0x0000089e       0x17 c:/ti/ccs1020/ccs/tools/compiler/gcc-arm-none-eabi-9-2019-q4-major/bin/../lib/gcc/arm-none-eabi/9.2.1/../../../../arm-none-eabi/lib/thumb/v7e-m+fp/hard\libc_nano.a(lib_a-strlen.o)
 .ARM.attributes
                0x000008b5       0x34 c:/ti/ccs1020/ccs/tools/compiler/gcc-arm-none-eabi-9-2019-q4-major/bin/../lib/gcc/arm-none-eabi/9.2.1/../../../../arm-none-eabi/lib/thumb/v7e-m+fp/hard\libc_nano.a(lib_a-mlock.o)
 .ARM.attributes
                0x000008e9       0x34 c:/ti/ccs1020/ccs/tools/compiler/gcc-arm-none-eabi-9-2019-q4-major/bin/../lib/gcc/arm-none-eabi/9.2.1/../../../../arm-none-eabi/lib/thumb/v7e-m+fp/hard\libc_nano.a(lib_a-nano-freer.o)

.debug_frame    0x00000000     0x5758
 .debug_frame   0x00000000       0x58 ./MLX90614.o
 .debug_frame   0x00000058       0x4c ./syscfg/ti_drivers_config.o
 .debug_frame   0x000000a4       0x50 ./main_freertos.o
 .debug_frame   0x000000f4       0xd8 C:/ti/simplelink_msp432e4_sdk_4_20_00_12/source\ti/display/lib/display.am4fg(Display.om4fg)
 .debug_frame   0x000001cc      0x1d0 C:/ti/simplelink_msp432e4_sdk_4_20_00_12/source\ti/display/lib/display.am4fg(DisplayUart.om4fg)
 .debug_frame   0x0000039c      0x200 C:/ti/simplelink_msp432e4_sdk_4_20_00_12/source\ti/drivers/lib/drivers_msp432e4.am4fg(GPIOMSP432E4.om4fg)
 .debug_frame   0x0000059c       0xb8 C:/ti/simplelink_msp432e4_sdk_4_20_00_12/source\ti/drivers/lib/drivers_msp432e4.am4fg(I2C.om4fg)
 .debug_frame   0x00000654      0x208 C:/ti/simplelink_msp432e4_sdk_4_20_00_12/source\ti/drivers/lib/drivers_msp432e4.am4fg(I2CMSP432E4.om4fg)
 .debug_frame   0x0000085c       0xcc C:/ti/simplelink_msp432e4_sdk_4_20_00_12/source\ti/drivers/lib/drivers_msp432e4.am4fg(PowerMSP432E4.om4fg)
 .debug_frame   0x00000928       0xec C:/ti/simplelink_msp432e4_sdk_4_20_00_12/source\ti/drivers/lib/drivers_msp432e4.am4fg(UART.om4fg)
 .debug_frame   0x00000a14      0x358 C:/ti/simplelink_msp432e4_sdk_4_20_00_12/source\ti/drivers/lib/drivers_msp432e4.am4fg(UARTMSP432E4.om4fg)
 .debug_frame   0x00000d6c       0xb0 C:/ti/simplelink_msp432e4_sdk_4_20_00_12/source\ti/drivers/lib/drivers_msp432e4.am4fg(RingBuf.om4fg)
 .debug_frame   0x00000e1c      0x23c C:/Users/Ravonte/workspace_v10/freertos_builds_MSP_EXP432E401Y_release_gcc/Debug\libfreertos_builds_MSP_EXP432E401Y_release_gcc.a(ClockP_freertos.o)
 .debug_frame   0x00001058      0x214 C:/Users/Ravonte/workspace_v10/freertos_builds_MSP_EXP432E401Y_release_gcc/Debug\libfreertos_builds_MSP_EXP432E401Y_release_gcc.a(HwiPMSP432E4_freertos.o)
 .debug_frame   0x0000126c       0x54 C:/Users/Ravonte/workspace_v10/freertos_builds_MSP_EXP432E401Y_release_gcc/Debug\libfreertos_builds_MSP_EXP432E401Y_release_gcc.a(PowerMSP432E4_freertos.o)
 .debug_frame   0x000012c0       0xec C:/Users/Ravonte/workspace_v10/freertos_builds_MSP_EXP432E401Y_release_gcc/Debug\libfreertos_builds_MSP_EXP432E401Y_release_gcc.a(SemaphoreP_freertos.o)
 .debug_frame   0x000013ac       0xe0 C:/Users/Ravonte/workspace_v10/freertos_builds_MSP_EXP432E401Y_release_gcc/Debug\libfreertos_builds_MSP_EXP432E401Y_release_gcc.a(SystemP_freertos.o)
 .debug_frame   0x0000148c      0x12c C:/Users/Ravonte/workspace_v10/freertos_builds_MSP_EXP432E401Y_release_gcc/Debug\libfreertos_builds_MSP_EXP432E401Y_release_gcc.a(heap_4.o)
 .debug_frame   0x000015b8      0x4bc C:/Users/Ravonte/workspace_v10/freertos_builds_MSP_EXP432E401Y_release_gcc/Debug\libfreertos_builds_MSP_EXP432E401Y_release_gcc.a(queue.o)
 .debug_frame   0x00001a74      0x9cc C:/Users/Ravonte/workspace_v10/freertos_builds_MSP_EXP432E401Y_release_gcc/Debug\libfreertos_builds_MSP_EXP432E401Y_release_gcc.a(tasks.o)
 .debug_frame   0x00002440      0x38c C:/Users/Ravonte/workspace_v10/freertos_builds_MSP_EXP432E401Y_release_gcc/Debug\libfreertos_builds_MSP_EXP432E401Y_release_gcc.a(timers.o)
 .debug_frame   0x000027cc      0x1cc C:/Users/Ravonte/workspace_v10/freertos_builds_MSP_EXP432E401Y_release_gcc/Debug\libfreertos_builds_MSP_EXP432E401Y_release_gcc.a(port.o)
 .debug_frame   0x00002998       0xc4 C:/Users/Ravonte/workspace_v10/freertos_builds_MSP_EXP432E401Y_release_gcc/Debug\libfreertos_builds_MSP_EXP432E401Y_release_gcc.a(startup_msp432e4_gcc.o)
 .debug_frame   0x00002a5c      0x484 C:/Users/Ravonte/workspace_v10/freertos_builds_MSP_EXP432E401Y_release_gcc/Debug\libfreertos_builds_MSP_EXP432E401Y_release_gcc.a(pthread.o)
 .debug_frame   0x00002ee0       0x7c C:/Users/Ravonte/workspace_v10/freertos_builds_MSP_EXP432E401Y_release_gcc/Debug\libfreertos_builds_MSP_EXP432E401Y_release_gcc.a(sleep.o)
 .debug_frame   0x00002f5c       0xd8 C:/Users/Ravonte/workspace_v10/freertos_builds_MSP_EXP432E401Y_release_gcc/Debug\libfreertos_builds_MSP_EXP432E401Y_release_gcc.a(list.o)
 .debug_frame   0x00003034      0x150 C:/ti/simplelink_msp432e4_sdk_4_20_00_12/source\ti/devices/msp432e4/driverlib/lib/gcc/m4f/msp432e4_driverlib.a(fpu.o)
 .debug_frame   0x00003184      0x740 C:/ti/simplelink_msp432e4_sdk_4_20_00_12/source\ti/devices/msp432e4/driverlib/lib/gcc/m4f/msp432e4_driverlib.a(gpio.o)
 .debug_frame   0x000038c4      0x898 C:/ti/simplelink_msp432e4_sdk_4_20_00_12/source\ti/devices/msp432e4/driverlib/lib/gcc/m4f/msp432e4_driverlib.a(i2c.o)
 .debug_frame   0x0000415c      0x280 C:/ti/simplelink_msp432e4_sdk_4_20_00_12/source\ti/devices/msp432e4/driverlib/lib/gcc/m4f/msp432e4_driverlib.a(interrupt.o)
 .debug_frame   0x000043dc      0x6d8 C:/ti/simplelink_msp432e4_sdk_4_20_00_12/source\ti/devices/msp432e4/driverlib/lib/gcc/m4f/msp432e4_driverlib.a(sysctl.o)
 .debug_frame   0x00004ab4      0x784 C:/ti/simplelink_msp432e4_sdk_4_20_00_12/source\ti/devices/msp432e4/driverlib/lib/gcc/m4f/msp432e4_driverlib.a(uart.o)
 .debug_frame   0x00005238       0x30 c:/ti/ccs1020/ccs/tools/compiler/gcc-arm-none-eabi-9-2019-q4-major/bin/../lib/gcc/arm-none-eabi/9.2.1/thumb/v7e-m+fp/hard\libgcc.a(_arm_muldf3.o)
 .debug_frame   0x00005268       0xac c:/ti/ccs1020/ccs/tools/compiler/gcc-arm-none-eabi-9-2019-q4-major/bin/../lib/gcc/arm-none-eabi/9.2.1/thumb/v7e-m+fp/hard\libgcc.a(_arm_addsubdf3.o)
 .debug_frame   0x00005314       0xc4 c:/ti/ccs1020/ccs/tools/compiler/gcc-arm-none-eabi-9-2019-q4-major/bin/../lib/gcc/arm-none-eabi/9.2.1/thumb/v7e-m+fp/hard\libgcc.a(_arm_cmpdf2.o)
 .debug_frame   0x000053d8       0x24 c:/ti/ccs1020/ccs/tools/compiler/gcc-arm-none-eabi-9-2019-q4-major/bin/../lib/gcc/arm-none-eabi/9.2.1/thumb/v7e-m+fp/hard\libgcc.a(_arm_fixdfsi.o)
 .debug_frame   0x000053fc       0x24 c:/ti/ccs1020/ccs/tools/compiler/gcc-arm-none-eabi-9-2019-q4-major/bin/../lib/gcc/arm-none-eabi/9.2.1/thumb/v7e-m+fp/hard\libgcc.a(_arm_fixunsdfsi.o)
 .debug_frame   0x00005420      0x14c c:/ti/ccs1020/ccs/tools/compiler/gcc-arm-none-eabi-9-2019-q4-major/bin/../lib/gcc/arm-none-eabi/9.2.1/../../../../arm-none-eabi/lib/thumb/v7e-m+fp/hard\libc_nano.a(lib_a-findfp.o)
 .debug_frame   0x0000556c       0xb0 c:/ti/ccs1020/ccs/tools/compiler/gcc-arm-none-eabi-9-2019-q4-major/bin/../lib/gcc/arm-none-eabi/9.2.1/../../../../arm-none-eabi/lib/thumb/v7e-m+fp/hard\libc_nano.a(lib_a-lock.o)
 .debug_frame   0x0000561c       0x28 c:/ti/ccs1020/ccs/tools/compiler/gcc-arm-none-eabi-9-2019-q4-major/bin/../lib/gcc/arm-none-eabi/9.2.1/../../../../arm-none-eabi/lib/thumb/v7e-m+fp/hard\libc_nano.a(lib_a-memcpy-stub.o)
 .debug_frame   0x00005644       0x20 c:/ti/ccs1020/ccs/tools/compiler/gcc-arm-none-eabi-9-2019-q4-major/bin/../lib/gcc/arm-none-eabi/9.2.1/../../../../arm-none-eabi/lib/thumb/v7e-m+fp/hard\libc_nano.a(lib_a-memset.o)
 .debug_frame   0x00005664       0x30 c:/ti/ccs1020/ccs/tools/compiler/gcc-arm-none-eabi-9-2019-q4-major/bin/../lib/gcc/arm-none-eabi/9.2.1/../../../../arm-none-eabi/lib/thumb/v7e-m+fp/hard\libc_nano.a(lib_a-nano-mallocr.o)
 .debug_frame   0x00005694       0x5c c:/ti/ccs1020/ccs/tools/compiler/gcc-arm-none-eabi-9-2019-q4-major/bin/../lib/gcc/arm-none-eabi/9.2.1/../../../../arm-none-eabi/lib/thumb/v7e-m+fp/hard\libc_nano.a(lib_a-reent.o)
 .debug_frame   0x000056f0       0x30 c:/ti/ccs1020/ccs/tools/compiler/gcc-arm-none-eabi-9-2019-q4-major/bin/../lib/gcc/arm-none-eabi/9.2.1/../../../../arm-none-eabi/lib/thumb/v7e-m+fp/hard\libc_nano.a(lib_a-mlock.o)
 .debug_frame   0x00005720       0x38 c:/ti/ccs1020/ccs/tools/compiler/gcc-arm-none-eabi-9-2019-q4-major/bin/../lib/gcc/arm-none-eabi/9.2.1/../../../../arm-none-eabi/lib/thumb/v7e-m+fp/hard\libc_nano.a(lib_a-nano-freer.o)

.debug_loc      0x00000000     0x3f34
 .debug_loc     0x00000000      0x32e C:/ti/simplelink_msp432e4_sdk_4_20_00_12/source\ti/display/lib/display.am4fg(Display.om4fg)
 .debug_loc     0x0000032e      0x573 C:/ti/simplelink_msp432e4_sdk_4_20_00_12/source\ti/display/lib/display.am4fg(DisplayUart.om4fg)
 .debug_loc     0x000008a1      0xb54 C:/ti/simplelink_msp432e4_sdk_4_20_00_12/source\ti/drivers/lib/drivers_msp432e4.am4fg(GPIOMSP432E4.om4fg)
 .debug_loc     0x000013f5      0x2bb C:/ti/simplelink_msp432e4_sdk_4_20_00_12/source\ti/drivers/lib/drivers_msp432e4.am4fg(I2C.om4fg)
 .debug_loc     0x000016b0      0xb9a C:/ti/simplelink_msp432e4_sdk_4_20_00_12/source\ti/drivers/lib/drivers_msp432e4.am4fg(I2CMSP432E4.om4fg)
 .debug_loc     0x0000224a      0x255 C:/ti/simplelink_msp432e4_sdk_4_20_00_12/source\ti/drivers/lib/drivers_msp432e4.am4fg(PowerMSP432E4.om4fg)
 .debug_loc     0x0000249f      0x41e C:/ti/simplelink_msp432e4_sdk_4_20_00_12/source\ti/drivers/lib/drivers_msp432e4.am4fg(UART.om4fg)
 .debug_loc     0x000028bd     0x1489 C:/ti/simplelink_msp432e4_sdk_4_20_00_12/source\ti/drivers/lib/drivers_msp432e4.am4fg(UARTMSP432E4.om4fg)
 .debug_loc     0x00003d46      0x1ee C:/ti/simplelink_msp432e4_sdk_4_20_00_12/source\ti/drivers/lib/drivers_msp432e4.am4fg(RingBuf.om4fg)

.stabstr        0x00000000       0xdf
 .stabstr       0x00000000       0xdf c:/ti/ccs1020/ccs/tools/compiler/gcc-arm-none-eabi-9-2019-q4-major/bin/../lib/gcc/arm-none-eabi/9.2.1/../../../../arm-none-eabi/lib/thumb/v7e-m+fp/hard\libnosys.a(close.o)
